
Garden.elf:     file format elf32-avr

Sections:
Idx Name          Size      VMA       LMA       File off  Algn
  0 .text         000026c2  00000000  00000000  00000094  2**1
                  CONTENTS, ALLOC, LOAD, READONLY, CODE
  1 .data         0000019c  00800060  000026c2  00002756  2**0
                  CONTENTS, ALLOC, LOAD, DATA
  2 .bss          0000005a  008001fc  008001fc  000028f2  2**0
                  ALLOC
  3 .comment      00000011  00000000  00000000  000028f2  2**0
                  CONTENTS, READONLY
  4 .note.gnu.avr.deviceinfo 0000003c  00000000  00000000  00002904  2**2
                  CONTENTS, READONLY
  5 .debug_info   000004e6  00000000  00000000  00002940  2**0
                  CONTENTS, READONLY, DEBUGGING
  6 .debug_abbrev 000004a3  00000000  00000000  00002e26  2**0
                  CONTENTS, READONLY, DEBUGGING
  7 .debug_line   0000001a  00000000  00000000  000032c9  2**0
                  CONTENTS, READONLY, DEBUGGING
  8 .debug_str    00000196  00000000  00000000  000032e3  2**0
                  CONTENTS, READONLY, DEBUGGING

Disassembly of section .text:

00000000 <__vectors>:
       0:	0c 94 2a 00 	jmp	0x54	; 0x54 <__ctors_end>
       4:	0c 94 81 06 	jmp	0xd02	; 0xd02 <__vector_1>
       8:	0c 94 ad 06 	jmp	0xd5a	; 0xd5a <__vector_2>
       c:	0c 94 d9 06 	jmp	0xdb2	; 0xdb2 <__vector_3>
      10:	0c 94 65 0d 	jmp	0x1aca	; 0x1aca <__vector_4>
      14:	0c 94 3c 0d 	jmp	0x1a78	; 0x1a78 <__vector_5>
      18:	0c 94 13 0d 	jmp	0x1a26	; 0x1a26 <__vector_6>
      1c:	0c 94 ea 0c 	jmp	0x19d4	; 0x19d4 <__vector_7>
      20:	0c 94 c1 0c 	jmp	0x1982	; 0x1982 <__vector_8>
      24:	0c 94 98 0c 	jmp	0x1930	; 0x1930 <__vector_9>
      28:	0c 94 6f 0c 	jmp	0x18de	; 0x18de <__vector_10>
      2c:	0c 94 46 0c 	jmp	0x188c	; 0x188c <__vector_11>
      30:	0c 94 47 00 	jmp	0x8e	; 0x8e <__bad_interrupt>
      34:	0c 94 76 0e 	jmp	0x1cec	; 0x1cec <__vector_13>
      38:	0c 94 47 00 	jmp	0x8e	; 0x8e <__bad_interrupt>
      3c:	0c 94 b5 0e 	jmp	0x1d6a	; 0x1d6a <__vector_15>
      40:	0c 94 3b 01 	jmp	0x276	; 0x276 <__vector_16>
      44:	0c 94 47 00 	jmp	0x8e	; 0x8e <__bad_interrupt>
      48:	0c 94 47 00 	jmp	0x8e	; 0x8e <__bad_interrupt>
      4c:	0c 94 47 00 	jmp	0x8e	; 0x8e <__bad_interrupt>
      50:	0c 94 47 00 	jmp	0x8e	; 0x8e <__bad_interrupt>

00000054 <__ctors_end>:
      54:	11 24       	eor	r1, r1
      56:	1f be       	out	0x3f, r1	; 63
      58:	cf e5       	ldi	r28, 0x5F	; 95
      5a:	d8 e0       	ldi	r29, 0x08	; 8
      5c:	de bf       	out	0x3e, r29	; 62
      5e:	cd bf       	out	0x3d, r28	; 61

00000060 <__do_copy_data>:
      60:	11 e0       	ldi	r17, 0x01	; 1
      62:	a0 e6       	ldi	r26, 0x60	; 96
      64:	b0 e0       	ldi	r27, 0x00	; 0
      66:	e2 ec       	ldi	r30, 0xC2	; 194
      68:	f6 e2       	ldi	r31, 0x26	; 38
      6a:	02 c0       	rjmp	.+4      	; 0x70 <__do_copy_data+0x10>
      6c:	05 90       	lpm	r0, Z+
      6e:	0d 92       	st	X+, r0
      70:	ac 3f       	cpi	r26, 0xFC	; 252
      72:	b1 07       	cpc	r27, r17
      74:	d9 f7       	brne	.-10     	; 0x6c <__do_copy_data+0xc>

00000076 <__do_clear_bss>:
      76:	22 e0       	ldi	r18, 0x02	; 2
      78:	ac ef       	ldi	r26, 0xFC	; 252
      7a:	b1 e0       	ldi	r27, 0x01	; 1
      7c:	01 c0       	rjmp	.+2      	; 0x80 <.do_clear_bss_start>

0000007e <.do_clear_bss_loop>:
      7e:	1d 92       	st	X+, r1

00000080 <.do_clear_bss_start>:
      80:	a6 35       	cpi	r26, 0x56	; 86
      82:	b2 07       	cpc	r27, r18
      84:	e1 f7       	brne	.-8      	; 0x7e <.do_clear_bss_loop>
      86:	0e 94 63 10 	call	0x20c6	; 0x20c6 <main>
      8a:	0c 94 5f 13 	jmp	0x26be	; 0x26be <_exit>

0000008e <__bad_interrupt>:
      8e:	0c 94 00 00 	jmp	0	; 0x0 <__vectors>

00000092 <ADC_vInit>:
      92:	3e 9a       	sbi	0x07, 6	; 7
      94:	3f 98       	cbi	0x07, 7	; 7
      96:	3d 98       	cbi	0x07, 5	; 7
      98:	86 b1       	in	r24, 0x06	; 6
      9a:	88 7f       	andi	r24, 0xF8	; 248
      9c:	86 b9       	out	0x06, r24	; 6
      9e:	86 b1       	in	r24, 0x06	; 6
      a0:	87 60       	ori	r24, 0x07	; 7
      a2:	86 b9       	out	0x06, r24	; 6
      a4:	35 98       	cbi	0x06, 5	; 6
      a6:	37 9a       	sbi	0x06, 7	; 6
      a8:	33 98       	cbi	0x06, 3	; 6
      aa:	08 95       	ret

000000ac <ADC_vEnable>:
      ac:	37 9a       	sbi	0x06, 7	; 6
      ae:	08 95       	ret

000000b0 <ADC_vDisable>:
      b0:	37 98       	cbi	0x06, 7	; 6
      b2:	08 95       	ret

000000b4 <ADC_vInterruptEnable>:
      b4:	33 9a       	sbi	0x06, 3	; 6
      b6:	08 95       	ret

000000b8 <ADC_vInterruptDisable>:
      b8:	33 98       	cbi	0x06, 3	; 6
      ba:	08 95       	ret

000000bc <ADC_u8VoltageReference>:
      bc:	82 30       	cpi	r24, 0x02	; 2
      be:	10 f0       	brcs	.+4      	; 0xc4 <ADC_u8VoltageReference+0x8>
      c0:	83 30       	cpi	r24, 0x03	; 3
      c2:	61 f4       	brne	.+24     	; 0xdc <ADC_u8VoltageReference+0x20>
      c4:	97 b1       	in	r25, 0x07	; 7
      c6:	9f 73       	andi	r25, 0x3F	; 63
      c8:	97 b9       	out	0x07, r25	; 7
      ca:	27 b1       	in	r18, 0x07	; 7
      cc:	30 e4       	ldi	r19, 0x40	; 64
      ce:	83 9f       	mul	r24, r19
      d0:	c0 01       	movw	r24, r0
      d2:	11 24       	eor	r1, r1
      d4:	82 2b       	or	r24, r18
      d6:	87 b9       	out	0x07, r24	; 7
      d8:	80 e0       	ldi	r24, 0x00	; 0
      da:	08 95       	ret
      dc:	81 e0       	ldi	r24, 0x01	; 1
      de:	08 95       	ret

000000e0 <ADC_u8SetPrescaler>:
      e0:	88 30       	cpi	r24, 0x08	; 8
      e2:	40 f4       	brcc	.+16     	; 0xf4 <ADC_u8SetPrescaler+0x14>
      e4:	96 b1       	in	r25, 0x06	; 6
      e6:	98 7f       	andi	r25, 0xF8	; 248
      e8:	96 b9       	out	0x06, r25	; 6
      ea:	96 b1       	in	r25, 0x06	; 6
      ec:	89 2b       	or	r24, r25
      ee:	86 b9       	out	0x06, r24	; 6
      f0:	80 e0       	ldi	r24, 0x00	; 0
      f2:	08 95       	ret
      f4:	81 e0       	ldi	r24, 0x01	; 1
      f6:	08 95       	ret

000000f8 <ADC_u8SetAdjustment>:
      f8:	81 11       	cpse	r24, r1
      fa:	02 c0       	rjmp	.+4      	; 0x100 <ADC_u8SetAdjustment+0x8>
      fc:	3d 98       	cbi	0x07, 5	; 7
      fe:	08 95       	ret
     100:	81 30       	cpi	r24, 0x01	; 1
     102:	19 f4       	brne	.+6      	; 0x10a <ADC_u8SetAdjustment+0x12>
     104:	3d 9a       	sbi	0x07, 5	; 7
     106:	80 e0       	ldi	r24, 0x00	; 0
     108:	08 95       	ret
     10a:	81 e0       	ldi	r24, 0x01	; 1
     10c:	08 95       	ret

0000010e <ADC_u8SetTriggerSource>:
     10e:	88 30       	cpi	r24, 0x08	; 8
     110:	19 f4       	brne	.+6      	; 0x118 <ADC_u8SetTriggerSource+0xa>
     112:	35 98       	cbi	0x06, 5	; 6
     114:	80 e0       	ldi	r24, 0x00	; 0
     116:	08 95       	ret
     118:	88 30       	cpi	r24, 0x08	; 8
     11a:	38 f4       	brcc	.+14     	; 0x12a <ADC_u8SetTriggerSource+0x1c>
     11c:	35 9a       	sbi	0x06, 5	; 6
     11e:	80 b7       	in	r24, 0x30	; 48
     120:	8f 71       	andi	r24, 0x1F	; 31
     122:	80 bf       	out	0x30, r24	; 48
     124:	80 b7       	in	r24, 0x30	; 48
     126:	80 bf       	out	0x30, r24	; 48
     128:	f5 cf       	rjmp	.-22     	; 0x114 <ADC_u8SetTriggerSource+0x6>
     12a:	81 e0       	ldi	r24, 0x01	; 1
     12c:	08 95       	ret

0000012e <ADC_u8GetResultSync>:
     12e:	fb 01       	movw	r30, r22
     130:	92 e0       	ldi	r25, 0x02	; 2
     132:	30 97       	sbiw	r30, 0x00	; 0
     134:	81 f1       	breq	.+96     	; 0x196 <ADC_u8GetResultSync+0x68>
     136:	90 91 fc 01 	lds	r25, 0x01FC	; 0x8001fc <__data_end>
     13a:	91 11       	cpse	r25, r1
     13c:	2e c0       	rjmp	.+92     	; 0x19a <ADC_u8GetResultSync+0x6c>
     13e:	21 e0       	ldi	r18, 0x01	; 1
     140:	20 93 fc 01 	sts	0x01FC, r18	; 0x8001fc <__data_end>
     144:	80 32       	cpi	r24, 0x20	; 32
     146:	30 f4       	brcc	.+12     	; 0x154 <ADC_u8GetResultSync+0x26>
     148:	27 b1       	in	r18, 0x07	; 7
     14a:	20 7e       	andi	r18, 0xE0	; 224
     14c:	27 b9       	out	0x07, r18	; 7
     14e:	27 b1       	in	r18, 0x07	; 7
     150:	82 2b       	or	r24, r18
     152:	87 b9       	out	0x07, r24	; 7
     154:	36 9a       	sbi	0x06, 6	; 6
     156:	40 e0       	ldi	r20, 0x00	; 0
     158:	50 e0       	ldi	r21, 0x00	; 0
     15a:	ba 01       	movw	r22, r20
     15c:	34 99       	sbic	0x06, 4	; 6
     15e:	0d c0       	rjmp	.+26     	; 0x17a <ADC_u8GetResultSync+0x4c>
     160:	40 35       	cpi	r20, 0x50	; 80
     162:	83 ec       	ldi	r24, 0xC3	; 195
     164:	58 07       	cpc	r21, r24
     166:	61 05       	cpc	r22, r1
     168:	71 05       	cpc	r23, r1
     16a:	11 f4       	brne	.+4      	; 0x170 <ADC_u8GetResultSync+0x42>
     16c:	91 e0       	ldi	r25, 0x01	; 1
     16e:	11 c0       	rjmp	.+34     	; 0x192 <ADC_u8GetResultSync+0x64>
     170:	4f 5f       	subi	r20, 0xFF	; 255
     172:	5f 4f       	sbci	r21, 0xFF	; 255
     174:	6f 4f       	sbci	r22, 0xFF	; 255
     176:	7f 4f       	sbci	r23, 0xFF	; 255
     178:	f1 cf       	rjmp	.-30     	; 0x15c <ADC_u8GetResultSync+0x2e>
     17a:	40 35       	cpi	r20, 0x50	; 80
     17c:	53 4c       	sbci	r21, 0xC3	; 195
     17e:	61 05       	cpc	r22, r1
     180:	71 05       	cpc	r23, r1
     182:	a1 f3       	breq	.-24     	; 0x16c <ADC_u8GetResultSync+0x3e>
     184:	34 9a       	sbi	0x06, 4	; 6
     186:	84 b1       	in	r24, 0x04	; 4
     188:	25 b1       	in	r18, 0x05	; 5
     18a:	32 2f       	mov	r19, r18
     18c:	28 2f       	mov	r18, r24
     18e:	31 83       	std	Z+1, r19	; 0x01
     190:	20 83       	st	Z, r18
     192:	10 92 fc 01 	sts	0x01FC, r1	; 0x8001fc <__data_end>
     196:	89 2f       	mov	r24, r25
     198:	08 95       	ret
     19a:	93 e0       	ldi	r25, 0x03	; 3
     19c:	fc cf       	rjmp	.-8      	; 0x196 <ADC_u8GetResultSync+0x68>

0000019e <ADC_u8StartConversionAsynch>:
     19e:	61 15       	cp	r22, r1
     1a0:	71 05       	cpc	r23, r1
     1a2:	01 f1       	breq	.+64     	; 0x1e4 <ADC_u8StartConversionAsynch+0x46>
     1a4:	41 15       	cp	r20, r1
     1a6:	51 05       	cpc	r21, r1
     1a8:	e9 f0       	breq	.+58     	; 0x1e4 <ADC_u8StartConversionAsynch+0x46>
     1aa:	90 91 fc 01 	lds	r25, 0x01FC	; 0x8001fc <__data_end>
     1ae:	91 11       	cpse	r25, r1
     1b0:	1b c0       	rjmp	.+54     	; 0x1e8 <ADC_u8StartConversionAsynch+0x4a>
     1b2:	21 e0       	ldi	r18, 0x01	; 1
     1b4:	20 93 fc 01 	sts	0x01FC, r18	; 0x8001fc <__data_end>
     1b8:	10 92 01 02 	sts	0x0201, r1	; 0x800201 <ADC_u8ISRState>
     1bc:	70 93 05 02 	sts	0x0205, r23	; 0x800205 <ADC_pu16AsynchConversionResult+0x1>
     1c0:	60 93 04 02 	sts	0x0204, r22	; 0x800204 <ADC_pu16AsynchConversionResult>
     1c4:	50 93 03 02 	sts	0x0203, r21	; 0x800203 <ADC_pvNotificationFunc+0x1>
     1c8:	40 93 02 02 	sts	0x0202, r20	; 0x800202 <ADC_pvNotificationFunc>
     1cc:	80 32       	cpi	r24, 0x20	; 32
     1ce:	30 f4       	brcc	.+12     	; 0x1dc <ADC_u8StartConversionAsynch+0x3e>
     1d0:	27 b1       	in	r18, 0x07	; 7
     1d2:	20 7e       	andi	r18, 0xE0	; 224
     1d4:	27 b9       	out	0x07, r18	; 7
     1d6:	27 b1       	in	r18, 0x07	; 7
     1d8:	82 2b       	or	r24, r18
     1da:	87 b9       	out	0x07, r24	; 7
     1dc:	36 9a       	sbi	0x06, 6	; 6
     1de:	33 9a       	sbi	0x06, 3	; 6
     1e0:	89 2f       	mov	r24, r25
     1e2:	08 95       	ret
     1e4:	92 e0       	ldi	r25, 0x02	; 2
     1e6:	fc cf       	rjmp	.-8      	; 0x1e0 <ADC_u8StartConversionAsynch+0x42>
     1e8:	93 e0       	ldi	r25, 0x03	; 3
     1ea:	fa cf       	rjmp	.-12     	; 0x1e0 <ADC_u8StartConversionAsynch+0x42>

000001ec <ADC_u8StartChainAsynch>:
     1ec:	fc 01       	movw	r30, r24
     1ee:	89 2b       	or	r24, r25
     1f0:	f1 f1       	breq	.+124    	; 0x26e <ADC_u8StartChainAsynch+0x82>
     1f2:	a0 81       	ld	r26, Z
     1f4:	b1 81       	ldd	r27, Z+1	; 0x01
     1f6:	10 97       	sbiw	r26, 0x00	; 0
     1f8:	d1 f1       	breq	.+116    	; 0x26e <ADC_u8StartChainAsynch+0x82>
     1fa:	25 81       	ldd	r18, Z+5	; 0x05
     1fc:	36 81       	ldd	r19, Z+6	; 0x06
     1fe:	21 15       	cp	r18, r1
     200:	31 05       	cpc	r19, r1
     202:	a9 f1       	breq	.+106    	; 0x26e <ADC_u8StartChainAsynch+0x82>
     204:	42 81       	ldd	r20, Z+2	; 0x02
     206:	53 81       	ldd	r21, Z+3	; 0x03
     208:	41 15       	cp	r20, r1
     20a:	51 05       	cpc	r21, r1
     20c:	81 f1       	breq	.+96     	; 0x26e <ADC_u8StartChainAsynch+0x82>
     20e:	80 91 fc 01 	lds	r24, 0x01FC	; 0x8001fc <__data_end>
     212:	81 11       	cpse	r24, r1
     214:	2e c0       	rjmp	.+92     	; 0x272 <ADC_u8StartChainAsynch+0x86>
     216:	91 e0       	ldi	r25, 0x01	; 1
     218:	90 93 fc 01 	sts	0x01FC, r25	; 0x8001fc <__data_end>
     21c:	90 93 01 02 	sts	0x0201, r25	; 0x800201 <ADC_u8ISRState>
     220:	50 93 05 02 	sts	0x0205, r21	; 0x800205 <ADC_pu16AsynchConversionResult+0x1>
     224:	40 93 04 02 	sts	0x0204, r20	; 0x800204 <ADC_pu16AsynchConversionResult>
     228:	b0 93 00 02 	sts	0x0200, r27	; 0x800200 <ADC_pu8ChainChannel+0x1>
     22c:	a0 93 ff 01 	sts	0x01FF, r26	; 0x8001ff <ADC_pu8ChainChannel>
     230:	94 81       	ldd	r25, Z+4	; 0x04
     232:	90 93 fe 01 	sts	0x01FE, r25	; 0x8001fe <ADC_u8ChainSize>
     236:	30 93 03 02 	sts	0x0203, r19	; 0x800203 <ADC_pvNotificationFunc+0x1>
     23a:	20 93 02 02 	sts	0x0202, r18	; 0x800202 <ADC_pvNotificationFunc>
     23e:	10 92 fd 01 	sts	0x01FD, r1	; 0x8001fd <ADC_u8Index>
     242:	9c 91       	ld	r25, X
     244:	90 32       	cpi	r25, 0x20	; 32
     246:	80 f4       	brcc	.+32     	; 0x268 <ADC_u8StartChainAsynch+0x7c>
     248:	97 b1       	in	r25, 0x07	; 7
     24a:	90 7e       	andi	r25, 0xE0	; 224
     24c:	97 b9       	out	0x07, r25	; 7
     24e:	97 b1       	in	r25, 0x07	; 7
     250:	e0 91 fd 01 	lds	r30, 0x01FD	; 0x8001fd <ADC_u8Index>
     254:	20 91 ff 01 	lds	r18, 0x01FF	; 0x8001ff <ADC_pu8ChainChannel>
     258:	30 91 00 02 	lds	r19, 0x0200	; 0x800200 <ADC_pu8ChainChannel+0x1>
     25c:	e2 0f       	add	r30, r18
     25e:	f3 2f       	mov	r31, r19
     260:	f1 1d       	adc	r31, r1
     262:	20 81       	ld	r18, Z
     264:	92 2b       	or	r25, r18
     266:	97 b9       	out	0x07, r25	; 7
     268:	36 9a       	sbi	0x06, 6	; 6
     26a:	33 9a       	sbi	0x06, 3	; 6
     26c:	08 95       	ret
     26e:	82 e0       	ldi	r24, 0x02	; 2
     270:	08 95       	ret
     272:	83 e0       	ldi	r24, 0x03	; 3
     274:	08 95       	ret

00000276 <__vector_16>:
     276:	1f 92       	push	r1
     278:	0f 92       	push	r0
     27a:	0f b6       	in	r0, 0x3f	; 63
     27c:	0f 92       	push	r0
     27e:	11 24       	eor	r1, r1
     280:	2f 93       	push	r18
     282:	3f 93       	push	r19
     284:	4f 93       	push	r20
     286:	5f 93       	push	r21
     288:	6f 93       	push	r22
     28a:	7f 93       	push	r23
     28c:	8f 93       	push	r24
     28e:	9f 93       	push	r25
     290:	af 93       	push	r26
     292:	bf 93       	push	r27
     294:	ef 93       	push	r30
     296:	ff 93       	push	r31
     298:	80 91 01 02 	lds	r24, 0x0201	; 0x800201 <ADC_u8ISRState>
     29c:	81 11       	cpse	r24, r1
     29e:	24 c0       	rjmp	.+72     	; 0x2e8 <__vector_16+0x72>
     2a0:	94 b1       	in	r25, 0x04	; 4
     2a2:	85 b1       	in	r24, 0x05	; 5
     2a4:	e0 91 04 02 	lds	r30, 0x0204	; 0x800204 <ADC_pu16AsynchConversionResult>
     2a8:	f0 91 05 02 	lds	r31, 0x0205	; 0x800205 <ADC_pu16AsynchConversionResult+0x1>
     2ac:	89 27       	eor	r24, r25
     2ae:	98 27       	eor	r25, r24
     2b0:	89 27       	eor	r24, r25
     2b2:	91 83       	std	Z+1, r25	; 0x01
     2b4:	80 83       	st	Z, r24
     2b6:	10 92 fc 01 	sts	0x01FC, r1	; 0x8001fc <__data_end>
     2ba:	e0 91 02 02 	lds	r30, 0x0202	; 0x800202 <ADC_pvNotificationFunc>
     2be:	f0 91 03 02 	lds	r31, 0x0203	; 0x800203 <ADC_pvNotificationFunc+0x1>
     2c2:	09 95       	icall
     2c4:	33 98       	cbi	0x06, 3	; 6
     2c6:	ff 91       	pop	r31
     2c8:	ef 91       	pop	r30
     2ca:	bf 91       	pop	r27
     2cc:	af 91       	pop	r26
     2ce:	9f 91       	pop	r25
     2d0:	8f 91       	pop	r24
     2d2:	7f 91       	pop	r23
     2d4:	6f 91       	pop	r22
     2d6:	5f 91       	pop	r21
     2d8:	4f 91       	pop	r20
     2da:	3f 91       	pop	r19
     2dc:	2f 91       	pop	r18
     2de:	0f 90       	pop	r0
     2e0:	0f be       	out	0x3f, r0	; 63
     2e2:	0f 90       	pop	r0
     2e4:	1f 90       	pop	r1
     2e6:	18 95       	reti
     2e8:	81 30       	cpi	r24, 0x01	; 1
     2ea:	69 f7       	brne	.-38     	; 0x2c6 <__vector_16+0x50>
     2ec:	94 b1       	in	r25, 0x04	; 4
     2ee:	85 b1       	in	r24, 0x05	; 5
     2f0:	e0 91 fd 01 	lds	r30, 0x01FD	; 0x8001fd <ADC_u8Index>
     2f4:	2e 2f       	mov	r18, r30
     2f6:	30 e0       	ldi	r19, 0x00	; 0
     2f8:	22 0f       	add	r18, r18
     2fa:	33 1f       	adc	r19, r19
     2fc:	a0 91 04 02 	lds	r26, 0x0204	; 0x800204 <ADC_pu16AsynchConversionResult>
     300:	b0 91 05 02 	lds	r27, 0x0205	; 0x800205 <ADC_pu16AsynchConversionResult+0x1>
     304:	a2 0f       	add	r26, r18
     306:	b3 1f       	adc	r27, r19
     308:	89 27       	eor	r24, r25
     30a:	98 27       	eor	r25, r24
     30c:	89 27       	eor	r24, r25
     30e:	8d 93       	st	X+, r24
     310:	9c 93       	st	X, r25
     312:	ef 5f       	subi	r30, 0xFF	; 255
     314:	e0 93 fd 01 	sts	0x01FD, r30	; 0x8001fd <ADC_u8Index>
     318:	80 91 fe 01 	lds	r24, 0x01FE	; 0x8001fe <ADC_u8ChainSize>
     31c:	e8 17       	cp	r30, r24
     31e:	59 f2       	breq	.-106    	; 0x2b6 <__vector_16+0x40>
     320:	80 91 ff 01 	lds	r24, 0x01FF	; 0x8001ff <ADC_pu8ChainChannel>
     324:	90 91 00 02 	lds	r25, 0x0200	; 0x800200 <ADC_pu8ChainChannel+0x1>
     328:	e8 0f       	add	r30, r24
     32a:	f9 2f       	mov	r31, r25
     32c:	f1 1d       	adc	r31, r1
     32e:	80 81       	ld	r24, Z
     330:	80 32       	cpi	r24, 0x20	; 32
     332:	80 f4       	brcc	.+32     	; 0x354 <__vector_16+0xde>
     334:	87 b1       	in	r24, 0x07	; 7
     336:	80 7e       	andi	r24, 0xE0	; 224
     338:	87 b9       	out	0x07, r24	; 7
     33a:	87 b1       	in	r24, 0x07	; 7
     33c:	e0 91 fd 01 	lds	r30, 0x01FD	; 0x8001fd <ADC_u8Index>
     340:	20 91 ff 01 	lds	r18, 0x01FF	; 0x8001ff <ADC_pu8ChainChannel>
     344:	30 91 00 02 	lds	r19, 0x0200	; 0x800200 <ADC_pu8ChainChannel+0x1>
     348:	e2 0f       	add	r30, r18
     34a:	f3 2f       	mov	r31, r19
     34c:	f1 1d       	adc	r31, r1
     34e:	90 81       	ld	r25, Z
     350:	89 2b       	or	r24, r25
     352:	87 b9       	out	0x07, r24	; 7
     354:	36 9a       	sbi	0x06, 6	; 6
     356:	b7 cf       	rjmp	.-146    	; 0x2c6 <__vector_16+0x50>

00000358 <CLCD_vSendFallingEdge>:
     358:	41 e0       	ldi	r20, 0x01	; 1
     35a:	65 e0       	ldi	r22, 0x05	; 5
     35c:	82 e0       	ldi	r24, 0x02	; 2
     35e:	0e 94 ce 03 	call	0x79c	; 0x79c <DIO_enumWritePinVal>
     362:	8f ec       	ldi	r24, 0xCF	; 207
     364:	97 e0       	ldi	r25, 0x07	; 7
     366:	01 97       	sbiw	r24, 0x01	; 1
     368:	f1 f7       	brne	.-4      	; 0x366 <CLCD_vSendFallingEdge+0xe>
     36a:	00 c0       	rjmp	.+0      	; 0x36c <CLCD_vSendFallingEdge+0x14>
     36c:	00 00       	nop
     36e:	40 e0       	ldi	r20, 0x00	; 0
     370:	65 e0       	ldi	r22, 0x05	; 5
     372:	82 e0       	ldi	r24, 0x02	; 2
     374:	0e 94 ce 03 	call	0x79c	; 0x79c <DIO_enumWritePinVal>
     378:	8f ec       	ldi	r24, 0xCF	; 207
     37a:	97 e0       	ldi	r25, 0x07	; 7
     37c:	01 97       	sbiw	r24, 0x01	; 1
     37e:	f1 f7       	brne	.-4      	; 0x37c <CLCD_vSendFallingEdge+0x24>
     380:	00 c0       	rjmp	.+0      	; 0x382 <CLCD_vSendFallingEdge+0x2a>
     382:	00 00       	nop
     384:	08 95       	ret

00000386 <CLCD_vSendData>:
     386:	cf 93       	push	r28
     388:	c8 2f       	mov	r28, r24
     38a:	41 e0       	ldi	r20, 0x01	; 1
     38c:	67 e0       	ldi	r22, 0x07	; 7
     38e:	82 e0       	ldi	r24, 0x02	; 2
     390:	0e 94 ce 03 	call	0x79c	; 0x79c <DIO_enumWritePinVal>
     394:	40 e0       	ldi	r20, 0x00	; 0
     396:	66 e0       	ldi	r22, 0x06	; 6
     398:	82 e0       	ldi	r24, 0x02	; 2
     39a:	0e 94 ce 03 	call	0x79c	; 0x79c <DIO_enumWritePinVal>
     39e:	6c 2f       	mov	r22, r28
     3a0:	62 95       	swap	r22
     3a2:	6f 70       	andi	r22, 0x0F	; 15
     3a4:	82 e0       	ldi	r24, 0x02	; 2
     3a6:	0e 94 06 05 	call	0xa0c	; 0xa0c <DIO_vWriteLowNibble>
     3aa:	0e 94 ac 01 	call	0x358	; 0x358 <CLCD_vSendFallingEdge>
     3ae:	6c 2f       	mov	r22, r28
     3b0:	82 e0       	ldi	r24, 0x02	; 2
     3b2:	0e 94 06 05 	call	0xa0c	; 0xa0c <DIO_vWriteLowNibble>
     3b6:	cf 91       	pop	r28
     3b8:	0c 94 ac 01 	jmp	0x358	; 0x358 <CLCD_vSendFallingEdge>

000003bc <CLCD_vSendCommand>:
     3bc:	cf 93       	push	r28
     3be:	c8 2f       	mov	r28, r24
     3c0:	40 e0       	ldi	r20, 0x00	; 0
     3c2:	67 e0       	ldi	r22, 0x07	; 7
     3c4:	82 e0       	ldi	r24, 0x02	; 2
     3c6:	0e 94 ce 03 	call	0x79c	; 0x79c <DIO_enumWritePinVal>
     3ca:	40 e0       	ldi	r20, 0x00	; 0
     3cc:	66 e0       	ldi	r22, 0x06	; 6
     3ce:	82 e0       	ldi	r24, 0x02	; 2
     3d0:	0e 94 ce 03 	call	0x79c	; 0x79c <DIO_enumWritePinVal>
     3d4:	6c 2f       	mov	r22, r28
     3d6:	62 95       	swap	r22
     3d8:	6f 70       	andi	r22, 0x0F	; 15
     3da:	82 e0       	ldi	r24, 0x02	; 2
     3dc:	0e 94 06 05 	call	0xa0c	; 0xa0c <DIO_vWriteLowNibble>
     3e0:	0e 94 ac 01 	call	0x358	; 0x358 <CLCD_vSendFallingEdge>
     3e4:	6c 2f       	mov	r22, r28
     3e6:	82 e0       	ldi	r24, 0x02	; 2
     3e8:	0e 94 06 05 	call	0xa0c	; 0xa0c <DIO_vWriteLowNibble>
     3ec:	cf 91       	pop	r28
     3ee:	0c 94 ac 01 	jmp	0x358	; 0x358 <CLCD_vSendFallingEdge>

000003f2 <CLCD_vClearScreen>:
     3f2:	81 e0       	ldi	r24, 0x01	; 1
     3f4:	0e 94 de 01 	call	0x3bc	; 0x3bc <CLCD_vSendCommand>
     3f8:	8f e1       	ldi	r24, 0x1F	; 31
     3fa:	9e e4       	ldi	r25, 0x4E	; 78
     3fc:	01 97       	sbiw	r24, 0x01	; 1
     3fe:	f1 f7       	brne	.-4      	; 0x3fc <CLCD_vClearScreen+0xa>
     400:	00 c0       	rjmp	.+0      	; 0x402 <__EEPROM_REGION_LENGTH__+0x2>
     402:	00 00       	nop
     404:	08 95       	ret

00000406 <CLCD_vInit>:
     406:	2f e7       	ldi	r18, 0x7F	; 127
     408:	88 e3       	ldi	r24, 0x38	; 56
     40a:	91 e0       	ldi	r25, 0x01	; 1
     40c:	21 50       	subi	r18, 0x01	; 1
     40e:	80 40       	sbci	r24, 0x00	; 0
     410:	90 40       	sbci	r25, 0x00	; 0
     412:	e1 f7       	brne	.-8      	; 0x40c <CLCD_vInit+0x6>
     414:	00 c0       	rjmp	.+0      	; 0x416 <CLCD_vInit+0x10>
     416:	00 00       	nop
     418:	41 e0       	ldi	r20, 0x01	; 1
     41a:	60 e0       	ldi	r22, 0x00	; 0
     41c:	82 e0       	ldi	r24, 0x02	; 2
     41e:	0e 94 8e 03 	call	0x71c	; 0x71c <DIO_enumSetPinDir>
     422:	41 e0       	ldi	r20, 0x01	; 1
     424:	61 e0       	ldi	r22, 0x01	; 1
     426:	82 e0       	ldi	r24, 0x02	; 2
     428:	0e 94 8e 03 	call	0x71c	; 0x71c <DIO_enumSetPinDir>
     42c:	41 e0       	ldi	r20, 0x01	; 1
     42e:	62 e0       	ldi	r22, 0x02	; 2
     430:	82 e0       	ldi	r24, 0x02	; 2
     432:	0e 94 8e 03 	call	0x71c	; 0x71c <DIO_enumSetPinDir>
     436:	41 e0       	ldi	r20, 0x01	; 1
     438:	63 e0       	ldi	r22, 0x03	; 3
     43a:	82 e0       	ldi	r24, 0x02	; 2
     43c:	0e 94 8e 03 	call	0x71c	; 0x71c <DIO_enumSetPinDir>
     440:	41 e0       	ldi	r20, 0x01	; 1
     442:	67 e0       	ldi	r22, 0x07	; 7
     444:	82 e0       	ldi	r24, 0x02	; 2
     446:	0e 94 8e 03 	call	0x71c	; 0x71c <DIO_enumSetPinDir>
     44a:	41 e0       	ldi	r20, 0x01	; 1
     44c:	66 e0       	ldi	r22, 0x06	; 6
     44e:	82 e0       	ldi	r24, 0x02	; 2
     450:	0e 94 8e 03 	call	0x71c	; 0x71c <DIO_enumSetPinDir>
     454:	41 e0       	ldi	r20, 0x01	; 1
     456:	65 e0       	ldi	r22, 0x05	; 5
     458:	82 e0       	ldi	r24, 0x02	; 2
     45a:	0e 94 8e 03 	call	0x71c	; 0x71c <DIO_enumSetPinDir>
     45e:	82 e0       	ldi	r24, 0x02	; 2
     460:	0e 94 de 01 	call	0x3bc	; 0x3bc <CLCD_vSendCommand>
     464:	8f e1       	ldi	r24, 0x1F	; 31
     466:	9e e4       	ldi	r25, 0x4E	; 78
     468:	01 97       	sbiw	r24, 0x01	; 1
     46a:	f1 f7       	brne	.-4      	; 0x468 <CLCD_vInit+0x62>
     46c:	00 c0       	rjmp	.+0      	; 0x46e <CLCD_vInit+0x68>
     46e:	00 00       	nop
     470:	88 e2       	ldi	r24, 0x28	; 40
     472:	0e 94 de 01 	call	0x3bc	; 0x3bc <CLCD_vSendCommand>
     476:	8f ec       	ldi	r24, 0xCF	; 207
     478:	97 e0       	ldi	r25, 0x07	; 7
     47a:	01 97       	sbiw	r24, 0x01	; 1
     47c:	f1 f7       	brne	.-4      	; 0x47a <CLCD_vInit+0x74>
     47e:	00 c0       	rjmp	.+0      	; 0x480 <CLCD_vInit+0x7a>
     480:	00 00       	nop
     482:	8c e0       	ldi	r24, 0x0C	; 12
     484:	0e 94 de 01 	call	0x3bc	; 0x3bc <CLCD_vSendCommand>
     488:	8f ec       	ldi	r24, 0xCF	; 207
     48a:	97 e0       	ldi	r25, 0x07	; 7
     48c:	01 97       	sbiw	r24, 0x01	; 1
     48e:	f1 f7       	brne	.-4      	; 0x48c <CLCD_vInit+0x86>
     490:	00 c0       	rjmp	.+0      	; 0x492 <CLCD_vInit+0x8c>
     492:	00 00       	nop
     494:	0e 94 f9 01 	call	0x3f2	; 0x3f2 <CLCD_vClearScreen>
     498:	86 e0       	ldi	r24, 0x06	; 6
     49a:	0e 94 de 01 	call	0x3bc	; 0x3bc <CLCD_vSendCommand>
     49e:	8f ec       	ldi	r24, 0xCF	; 207
     4a0:	97 e0       	ldi	r25, 0x07	; 7
     4a2:	01 97       	sbiw	r24, 0x01	; 1
     4a4:	f1 f7       	brne	.-4      	; 0x4a2 <CLCD_vInit+0x9c>
     4a6:	00 c0       	rjmp	.+0      	; 0x4a8 <CLCD_vInit+0xa2>
     4a8:	00 00       	nop
     4aa:	08 95       	ret

000004ac <CLCD_vSendString>:
     4ac:	0f 93       	push	r16
     4ae:	1f 93       	push	r17
     4b0:	cf 93       	push	r28
     4b2:	8c 01       	movw	r16, r24
     4b4:	c0 e0       	ldi	r28, 0x00	; 0
     4b6:	f8 01       	movw	r30, r16
     4b8:	ec 0f       	add	r30, r28
     4ba:	f1 1d       	adc	r31, r1
     4bc:	80 81       	ld	r24, Z
     4be:	81 11       	cpse	r24, r1
     4c0:	04 c0       	rjmp	.+8      	; 0x4ca <CLCD_vSendString+0x1e>
     4c2:	cf 91       	pop	r28
     4c4:	1f 91       	pop	r17
     4c6:	0f 91       	pop	r16
     4c8:	08 95       	ret
     4ca:	0e 94 c3 01 	call	0x386	; 0x386 <CLCD_vSendData>
     4ce:	cf 5f       	subi	r28, 0xFF	; 255
     4d0:	f2 cf       	rjmp	.-28     	; 0x4b6 <CLCD_vSendString+0xa>

000004d2 <CLCD_vSendIntNumber>:
     4d2:	4f 92       	push	r4
     4d4:	5f 92       	push	r5
     4d6:	6f 92       	push	r6
     4d8:	7f 92       	push	r7
     4da:	8f 92       	push	r8
     4dc:	9f 92       	push	r9
     4de:	af 92       	push	r10
     4e0:	bf 92       	push	r11
     4e2:	cf 92       	push	r12
     4e4:	df 92       	push	r13
     4e6:	ef 92       	push	r14
     4e8:	ff 92       	push	r15
     4ea:	0f 93       	push	r16
     4ec:	1f 93       	push	r17
     4ee:	cf 93       	push	r28
     4f0:	df 93       	push	r29
     4f2:	6b 01       	movw	r12, r22
     4f4:	7c 01       	movw	r14, r24
     4f6:	c1 14       	cp	r12, r1
     4f8:	d1 04       	cpc	r13, r1
     4fa:	e1 04       	cpc	r14, r1
     4fc:	f1 04       	cpc	r15, r1
     4fe:	99 f4       	brne	.+38     	; 0x526 <CLCD_vSendIntNumber+0x54>
     500:	80 e3       	ldi	r24, 0x30	; 48
     502:	df 91       	pop	r29
     504:	cf 91       	pop	r28
     506:	1f 91       	pop	r17
     508:	0f 91       	pop	r16
     50a:	ff 90       	pop	r15
     50c:	ef 90       	pop	r14
     50e:	df 90       	pop	r13
     510:	cf 90       	pop	r12
     512:	bf 90       	pop	r11
     514:	af 90       	pop	r10
     516:	9f 90       	pop	r9
     518:	8f 90       	pop	r8
     51a:	7f 90       	pop	r7
     51c:	6f 90       	pop	r6
     51e:	5f 90       	pop	r5
     520:	4f 90       	pop	r4
     522:	0c 94 c3 01 	jmp	0x386	; 0x386 <CLCD_vSendData>
     526:	f7 fe       	sbrs	r15, 7
     528:	0b c0       	rjmp	.+22     	; 0x540 <CLCD_vSendIntNumber+0x6e>
     52a:	8d e2       	ldi	r24, 0x2D	; 45
     52c:	0e 94 c3 01 	call	0x386	; 0x386 <CLCD_vSendData>
     530:	f0 94       	com	r15
     532:	e0 94       	com	r14
     534:	d0 94       	com	r13
     536:	c0 94       	com	r12
     538:	c1 1c       	adc	r12, r1
     53a:	d1 1c       	adc	r13, r1
     53c:	e1 1c       	adc	r14, r1
     53e:	f1 1c       	adc	r15, r1
     540:	61 e0       	ldi	r22, 0x01	; 1
     542:	70 e0       	ldi	r23, 0x00	; 0
     544:	80 e0       	ldi	r24, 0x00	; 0
     546:	90 e0       	ldi	r25, 0x00	; 0
     548:	3a e0       	ldi	r19, 0x0A	; 10
     54a:	83 2e       	mov	r8, r19
     54c:	91 2c       	mov	r9, r1
     54e:	a1 2c       	mov	r10, r1
     550:	b1 2c       	mov	r11, r1
     552:	aa e0       	ldi	r26, 0x0A	; 10
     554:	b0 e0       	ldi	r27, 0x00	; 0
     556:	9b 01       	movw	r18, r22
     558:	ac 01       	movw	r20, r24
     55a:	0e 94 26 11 	call	0x224c	; 0x224c <__muluhisi3>
     55e:	2b 01       	movw	r4, r22
     560:	3c 01       	movw	r6, r24
     562:	c7 01       	movw	r24, r14
     564:	b6 01       	movw	r22, r12
     566:	a5 01       	movw	r20, r10
     568:	94 01       	movw	r18, r8
     56a:	0e 94 00 11 	call	0x2200	; 0x2200 <__divmodsi4>
     56e:	64 0d       	add	r22, r4
     570:	75 1d       	adc	r23, r5
     572:	86 1d       	adc	r24, r6
     574:	97 1d       	adc	r25, r7
     576:	69 01       	movw	r12, r18
     578:	7a 01       	movw	r14, r20
     57a:	c1 14       	cp	r12, r1
     57c:	d1 04       	cpc	r13, r1
     57e:	e1 04       	cpc	r14, r1
     580:	f1 04       	cpc	r15, r1
     582:	39 f7       	brne	.-50     	; 0x552 <CLCD_vSendIntNumber+0x80>
     584:	2a e0       	ldi	r18, 0x0A	; 10
     586:	c2 2e       	mov	r12, r18
     588:	d1 2c       	mov	r13, r1
     58a:	e1 2c       	mov	r14, r1
     58c:	f1 2c       	mov	r15, r1
     58e:	61 30       	cpi	r22, 0x01	; 1
     590:	71 05       	cpc	r23, r1
     592:	81 05       	cpc	r24, r1
     594:	91 05       	cpc	r25, r1
     596:	89 f4       	brne	.+34     	; 0x5ba <CLCD_vSendIntNumber+0xe8>
     598:	df 91       	pop	r29
     59a:	cf 91       	pop	r28
     59c:	1f 91       	pop	r17
     59e:	0f 91       	pop	r16
     5a0:	ff 90       	pop	r15
     5a2:	ef 90       	pop	r14
     5a4:	df 90       	pop	r13
     5a6:	cf 90       	pop	r12
     5a8:	bf 90       	pop	r11
     5aa:	af 90       	pop	r10
     5ac:	9f 90       	pop	r9
     5ae:	8f 90       	pop	r8
     5b0:	7f 90       	pop	r7
     5b2:	6f 90       	pop	r6
     5b4:	5f 90       	pop	r5
     5b6:	4f 90       	pop	r4
     5b8:	08 95       	ret
     5ba:	a7 01       	movw	r20, r14
     5bc:	96 01       	movw	r18, r12
     5be:	0e 94 de 10 	call	0x21bc	; 0x21bc <__udivmodsi4>
     5c2:	89 01       	movw	r16, r18
     5c4:	d4 2f       	mov	r29, r20
     5c6:	c5 2f       	mov	r28, r21
     5c8:	80 e3       	ldi	r24, 0x30	; 48
     5ca:	86 0f       	add	r24, r22
     5cc:	0e 94 c3 01 	call	0x386	; 0x386 <CLCD_vSendData>
     5d0:	b8 01       	movw	r22, r16
     5d2:	8d 2f       	mov	r24, r29
     5d4:	9c 2f       	mov	r25, r28
     5d6:	db cf       	rjmp	.-74     	; 0x58e <CLCD_vSendIntNumber+0xbc>

000005d8 <CLCD_vSendFloatNumber>:
     5d8:	cf 92       	push	r12
     5da:	df 92       	push	r13
     5dc:	ef 92       	push	r14
     5de:	ff 92       	push	r15
     5e0:	6b 01       	movw	r12, r22
     5e2:	7c 01       	movw	r14, r24
     5e4:	0e 94 fa 11 	call	0x23f4	; 0x23f4 <__fixsfsi>
     5e8:	0e 94 69 02 	call	0x4d2	; 0x4d2 <CLCD_vSendIntNumber>
     5ec:	20 e0       	ldi	r18, 0x00	; 0
     5ee:	30 e0       	ldi	r19, 0x00	; 0
     5f0:	a9 01       	movw	r20, r18
     5f2:	c7 01       	movw	r24, r14
     5f4:	b6 01       	movw	r22, r12
     5f6:	0e 94 b9 11 	call	0x2372	; 0x2372 <__cmpsf2>
     5fa:	87 ff       	sbrs	r24, 7
     5fc:	04 c0       	rjmp	.+8      	; 0x606 <CLCD_vSendFloatNumber+0x2e>
     5fe:	f7 fa       	bst	r15, 7
     600:	f0 94       	com	r15
     602:	f7 f8       	bld	r15, 7
     604:	f0 94       	com	r15
     606:	c7 01       	movw	r24, r14
     608:	b6 01       	movw	r22, r12
     60a:	0e 94 fa 11 	call	0x23f4	; 0x23f4 <__fixsfsi>
     60e:	0e 94 32 12 	call	0x2464	; 0x2464 <__floatsisf>
     612:	9b 01       	movw	r18, r22
     614:	ac 01       	movw	r20, r24
     616:	c7 01       	movw	r24, r14
     618:	b6 01       	movw	r22, r12
     61a:	0e 94 4c 11 	call	0x2298	; 0x2298 <__subsf3>
     61e:	20 e0       	ldi	r18, 0x00	; 0
     620:	30 e4       	ldi	r19, 0x40	; 64
     622:	4c e1       	ldi	r20, 0x1C	; 28
     624:	56 e4       	ldi	r21, 0x46	; 70
     626:	0e 94 f2 12 	call	0x25e4	; 0x25e4 <__mulsf3>
     62a:	6b 01       	movw	r12, r22
     62c:	7c 01       	movw	r14, r24
     62e:	0e 94 be 11 	call	0x237c	; 0x237c <__fixsfdi>
     632:	a0 e0       	ldi	r26, 0x00	; 0
     634:	0e 94 31 11 	call	0x2262	; 0x2262 <__cmpdi2_s8>
     638:	69 f0       	breq	.+26     	; 0x654 <CLCD_vSendFloatNumber+0x7c>
     63a:	8e e2       	ldi	r24, 0x2E	; 46
     63c:	0e 94 c3 01 	call	0x386	; 0x386 <CLCD_vSendData>
     640:	c7 01       	movw	r24, r14
     642:	b6 01       	movw	r22, r12
     644:	0e 94 fa 11 	call	0x23f4	; 0x23f4 <__fixsfsi>
     648:	ff 90       	pop	r15
     64a:	ef 90       	pop	r14
     64c:	df 90       	pop	r13
     64e:	cf 90       	pop	r12
     650:	0c 94 69 02 	jmp	0x4d2	; 0x4d2 <CLCD_vSendIntNumber>
     654:	ff 90       	pop	r15
     656:	ef 90       	pop	r14
     658:	df 90       	pop	r13
     65a:	cf 90       	pop	r12
     65c:	08 95       	ret

0000065e <CLCD_vSetPosition>:
     65e:	98 2f       	mov	r25, r24
     660:	86 2f       	mov	r24, r22
     662:	2f ef       	ldi	r18, 0xFF	; 255
     664:	29 0f       	add	r18, r25
     666:	24 30       	cpi	r18, 0x04	; 4
     668:	d0 f4       	brcc	.+52     	; 0x69e <CLCD_vSetPosition+0x40>
     66a:	2f ef       	ldi	r18, 0xFF	; 255
     66c:	26 0f       	add	r18, r22
     66e:	24 31       	cpi	r18, 0x14	; 20
     670:	b0 f4       	brcc	.+44     	; 0x69e <CLCD_vSetPosition+0x40>
     672:	91 30       	cpi	r25, 0x01	; 1
     674:	51 f4       	brne	.+20     	; 0x68a <CLCD_vSetPosition+0x2c>
     676:	81 58       	subi	r24, 0x81	; 129
     678:	0e 94 de 01 	call	0x3bc	; 0x3bc <CLCD_vSendCommand>
     67c:	8f ec       	ldi	r24, 0xCF	; 207
     67e:	97 e0       	ldi	r25, 0x07	; 7
     680:	01 97       	sbiw	r24, 0x01	; 1
     682:	f1 f7       	brne	.-4      	; 0x680 <CLCD_vSetPosition+0x22>
     684:	00 c0       	rjmp	.+0      	; 0x686 <CLCD_vSetPosition+0x28>
     686:	00 00       	nop
     688:	08 95       	ret
     68a:	92 30       	cpi	r25, 0x02	; 2
     68c:	11 f4       	brne	.+4      	; 0x692 <CLCD_vSetPosition+0x34>
     68e:	81 54       	subi	r24, 0x41	; 65
     690:	f3 cf       	rjmp	.-26     	; 0x678 <CLCD_vSetPosition+0x1a>
     692:	93 30       	cpi	r25, 0x03	; 3
     694:	11 f4       	brne	.+4      	; 0x69a <CLCD_vSetPosition+0x3c>
     696:	8d 56       	subi	r24, 0x6D	; 109
     698:	ef cf       	rjmp	.-34     	; 0x678 <CLCD_vSetPosition+0x1a>
     69a:	8d 52       	subi	r24, 0x2D	; 45
     69c:	ed cf       	rjmp	.-38     	; 0x678 <CLCD_vSetPosition+0x1a>
     69e:	80 e8       	ldi	r24, 0x80	; 128
     6a0:	eb cf       	rjmp	.-42     	; 0x678 <CLCD_vSetPosition+0x1a>

000006a2 <CLCD_vSendExtraChar>:
     6a2:	ef 92       	push	r14
     6a4:	ff 92       	push	r15
     6a6:	0f 93       	push	r16
     6a8:	1f 93       	push	r17
     6aa:	cf 93       	push	r28
     6ac:	df 93       	push	r29
     6ae:	18 2f       	mov	r17, r24
     6b0:	06 2f       	mov	r16, r22
     6b2:	80 e4       	ldi	r24, 0x40	; 64
     6b4:	0e 94 de 01 	call	0x3bc	; 0x3bc <CLCD_vSendCommand>
     6b8:	c0 e6       	ldi	r28, 0x60	; 96
     6ba:	d0 e0       	ldi	r29, 0x00	; 0
     6bc:	88 e6       	ldi	r24, 0x68	; 104
     6be:	e8 2e       	mov	r14, r24
     6c0:	80 e0       	ldi	r24, 0x00	; 0
     6c2:	f8 2e       	mov	r15, r24
     6c4:	89 91       	ld	r24, Y+
     6c6:	0e 94 c3 01 	call	0x386	; 0x386 <CLCD_vSendData>
     6ca:	ec 16       	cp	r14, r28
     6cc:	fd 06       	cpc	r15, r29
     6ce:	d1 f7       	brne	.-12     	; 0x6c4 <CLCD_vSendExtraChar+0x22>
     6d0:	60 2f       	mov	r22, r16
     6d2:	81 2f       	mov	r24, r17
     6d4:	0e 94 2f 03 	call	0x65e	; 0x65e <CLCD_vSetPosition>
     6d8:	c0 e0       	ldi	r28, 0x00	; 0
     6da:	8c 2f       	mov	r24, r28
     6dc:	0e 94 c3 01 	call	0x386	; 0x386 <CLCD_vSendData>
     6e0:	cf 5f       	subi	r28, 0xFF	; 255
     6e2:	c8 30       	cpi	r28, 0x08	; 8
     6e4:	d1 f7       	brne	.-12     	; 0x6da <CLCD_vSendExtraChar+0x38>
     6e6:	df 91       	pop	r29
     6e8:	cf 91       	pop	r28
     6ea:	1f 91       	pop	r17
     6ec:	0f 91       	pop	r16
     6ee:	ff 90       	pop	r15
     6f0:	ef 90       	pop	r14
     6f2:	08 95       	ret

000006f4 <CLCD_voidShiftDisplayRight>:
     6f4:	8c e1       	ldi	r24, 0x1C	; 28
     6f6:	0e 94 de 01 	call	0x3bc	; 0x3bc <CLCD_vSendCommand>
     6fa:	8f ec       	ldi	r24, 0xCF	; 207
     6fc:	97 e0       	ldi	r25, 0x07	; 7
     6fe:	01 97       	sbiw	r24, 0x01	; 1
     700:	f1 f7       	brne	.-4      	; 0x6fe <CLCD_voidShiftDisplayRight+0xa>
     702:	00 c0       	rjmp	.+0      	; 0x704 <CLCD_voidShiftDisplayRight+0x10>
     704:	00 00       	nop
     706:	08 95       	ret

00000708 <CLCD_voidShiftDisplayLeft>:
     708:	88 e1       	ldi	r24, 0x18	; 24
     70a:	0e 94 de 01 	call	0x3bc	; 0x3bc <CLCD_vSendCommand>
     70e:	8f ec       	ldi	r24, 0xCF	; 207
     710:	97 e0       	ldi	r25, 0x07	; 7
     712:	01 97       	sbiw	r24, 0x01	; 1
     714:	f1 f7       	brne	.-4      	; 0x712 <CLCD_voidShiftDisplayLeft+0xa>
     716:	00 c0       	rjmp	.+0      	; 0x718 <CLCD_voidShiftDisplayLeft+0x10>
     718:	00 00       	nop
     71a:	08 95       	ret

0000071c <DIO_enumSetPinDir>:
     71c:	84 30       	cpi	r24, 0x04	; 4
     71e:	e0 f5       	brcc	.+120    	; 0x798 <DIO_enumSetPinDir+0x7c>
     720:	68 30       	cpi	r22, 0x08	; 8
     722:	d0 f5       	brcc	.+116    	; 0x798 <DIO_enumSetPinDir+0x7c>
     724:	41 30       	cpi	r20, 0x01	; 1
     726:	e9 f4       	brne	.+58     	; 0x762 <DIO_enumSetPinDir+0x46>
     728:	21 e0       	ldi	r18, 0x01	; 1
     72a:	30 e0       	ldi	r19, 0x00	; 0
     72c:	01 c0       	rjmp	.+2      	; 0x730 <DIO_enumSetPinDir+0x14>
     72e:	22 0f       	add	r18, r18
     730:	6a 95       	dec	r22
     732:	ea f7       	brpl	.-6      	; 0x72e <DIO_enumSetPinDir+0x12>
     734:	82 30       	cpi	r24, 0x02	; 2
     736:	69 f0       	breq	.+26     	; 0x752 <DIO_enumSetPinDir+0x36>
     738:	83 30       	cpi	r24, 0x03	; 3
     73a:	79 f0       	breq	.+30     	; 0x75a <DIO_enumSetPinDir+0x3e>
     73c:	81 30       	cpi	r24, 0x01	; 1
     73e:	21 f0       	breq	.+8      	; 0x748 <DIO_enumSetPinDir+0x2c>
     740:	8a b3       	in	r24, 0x1a	; 26
     742:	28 2b       	or	r18, r24
     744:	2a bb       	out	0x1a, r18	; 26
     746:	03 c0       	rjmp	.+6      	; 0x74e <DIO_enumSetPinDir+0x32>
     748:	87 b3       	in	r24, 0x17	; 23
     74a:	28 2b       	or	r18, r24
     74c:	27 bb       	out	0x17, r18	; 23
     74e:	81 e0       	ldi	r24, 0x01	; 1
     750:	08 95       	ret
     752:	84 b3       	in	r24, 0x14	; 20
     754:	28 2b       	or	r18, r24
     756:	24 bb       	out	0x14, r18	; 20
     758:	fa cf       	rjmp	.-12     	; 0x74e <DIO_enumSetPinDir+0x32>
     75a:	81 b3       	in	r24, 0x11	; 17
     75c:	28 2b       	or	r18, r24
     75e:	21 bb       	out	0x11, r18	; 17
     760:	f6 cf       	rjmp	.-20     	; 0x74e <DIO_enumSetPinDir+0x32>
     762:	41 11       	cpse	r20, r1
     764:	19 c0       	rjmp	.+50     	; 0x798 <DIO_enumSetPinDir+0x7c>
     766:	21 e0       	ldi	r18, 0x01	; 1
     768:	30 e0       	ldi	r19, 0x00	; 0
     76a:	01 c0       	rjmp	.+2      	; 0x76e <DIO_enumSetPinDir+0x52>
     76c:	22 0f       	add	r18, r18
     76e:	6a 95       	dec	r22
     770:	ea f7       	brpl	.-6      	; 0x76c <DIO_enumSetPinDir+0x50>
     772:	20 95       	com	r18
     774:	82 30       	cpi	r24, 0x02	; 2
     776:	51 f0       	breq	.+20     	; 0x78c <DIO_enumSetPinDir+0x70>
     778:	83 30       	cpi	r24, 0x03	; 3
     77a:	59 f0       	breq	.+22     	; 0x792 <DIO_enumSetPinDir+0x76>
     77c:	81 30       	cpi	r24, 0x01	; 1
     77e:	19 f0       	breq	.+6      	; 0x786 <DIO_enumSetPinDir+0x6a>
     780:	8a b3       	in	r24, 0x1a	; 26
     782:	28 23       	and	r18, r24
     784:	df cf       	rjmp	.-66     	; 0x744 <DIO_enumSetPinDir+0x28>
     786:	87 b3       	in	r24, 0x17	; 23
     788:	28 23       	and	r18, r24
     78a:	e0 cf       	rjmp	.-64     	; 0x74c <DIO_enumSetPinDir+0x30>
     78c:	84 b3       	in	r24, 0x14	; 20
     78e:	28 23       	and	r18, r24
     790:	e2 cf       	rjmp	.-60     	; 0x756 <DIO_enumSetPinDir+0x3a>
     792:	81 b3       	in	r24, 0x11	; 17
     794:	28 23       	and	r18, r24
     796:	e3 cf       	rjmp	.-58     	; 0x75e <DIO_enumSetPinDir+0x42>
     798:	80 e0       	ldi	r24, 0x00	; 0
     79a:	08 95       	ret

0000079c <DIO_enumWritePinVal>:
     79c:	84 30       	cpi	r24, 0x04	; 4
     79e:	e0 f5       	brcc	.+120    	; 0x818 <__DATA_REGION_LENGTH__+0x18>
     7a0:	68 30       	cpi	r22, 0x08	; 8
     7a2:	d0 f5       	brcc	.+116    	; 0x818 <__DATA_REGION_LENGTH__+0x18>
     7a4:	41 30       	cpi	r20, 0x01	; 1
     7a6:	e9 f4       	brne	.+58     	; 0x7e2 <DIO_enumWritePinVal+0x46>
     7a8:	21 e0       	ldi	r18, 0x01	; 1
     7aa:	30 e0       	ldi	r19, 0x00	; 0
     7ac:	01 c0       	rjmp	.+2      	; 0x7b0 <DIO_enumWritePinVal+0x14>
     7ae:	22 0f       	add	r18, r18
     7b0:	6a 95       	dec	r22
     7b2:	ea f7       	brpl	.-6      	; 0x7ae <DIO_enumWritePinVal+0x12>
     7b4:	82 30       	cpi	r24, 0x02	; 2
     7b6:	69 f0       	breq	.+26     	; 0x7d2 <DIO_enumWritePinVal+0x36>
     7b8:	83 30       	cpi	r24, 0x03	; 3
     7ba:	79 f0       	breq	.+30     	; 0x7da <DIO_enumWritePinVal+0x3e>
     7bc:	81 30       	cpi	r24, 0x01	; 1
     7be:	21 f0       	breq	.+8      	; 0x7c8 <DIO_enumWritePinVal+0x2c>
     7c0:	8b b3       	in	r24, 0x1b	; 27
     7c2:	28 2b       	or	r18, r24
     7c4:	2b bb       	out	0x1b, r18	; 27
     7c6:	03 c0       	rjmp	.+6      	; 0x7ce <DIO_enumWritePinVal+0x32>
     7c8:	88 b3       	in	r24, 0x18	; 24
     7ca:	28 2b       	or	r18, r24
     7cc:	28 bb       	out	0x18, r18	; 24
     7ce:	81 e0       	ldi	r24, 0x01	; 1
     7d0:	08 95       	ret
     7d2:	85 b3       	in	r24, 0x15	; 21
     7d4:	28 2b       	or	r18, r24
     7d6:	25 bb       	out	0x15, r18	; 21
     7d8:	fa cf       	rjmp	.-12     	; 0x7ce <DIO_enumWritePinVal+0x32>
     7da:	82 b3       	in	r24, 0x12	; 18
     7dc:	28 2b       	or	r18, r24
     7de:	22 bb       	out	0x12, r18	; 18
     7e0:	f6 cf       	rjmp	.-20     	; 0x7ce <DIO_enumWritePinVal+0x32>
     7e2:	41 11       	cpse	r20, r1
     7e4:	19 c0       	rjmp	.+50     	; 0x818 <__DATA_REGION_LENGTH__+0x18>
     7e6:	21 e0       	ldi	r18, 0x01	; 1
     7e8:	30 e0       	ldi	r19, 0x00	; 0
     7ea:	01 c0       	rjmp	.+2      	; 0x7ee <DIO_enumWritePinVal+0x52>
     7ec:	22 0f       	add	r18, r18
     7ee:	6a 95       	dec	r22
     7f0:	ea f7       	brpl	.-6      	; 0x7ec <DIO_enumWritePinVal+0x50>
     7f2:	20 95       	com	r18
     7f4:	82 30       	cpi	r24, 0x02	; 2
     7f6:	51 f0       	breq	.+20     	; 0x80c <__DATA_REGION_LENGTH__+0xc>
     7f8:	83 30       	cpi	r24, 0x03	; 3
     7fa:	59 f0       	breq	.+22     	; 0x812 <__DATA_REGION_LENGTH__+0x12>
     7fc:	81 30       	cpi	r24, 0x01	; 1
     7fe:	19 f0       	breq	.+6      	; 0x806 <__DATA_REGION_LENGTH__+0x6>
     800:	8b b3       	in	r24, 0x1b	; 27
     802:	28 23       	and	r18, r24
     804:	df cf       	rjmp	.-66     	; 0x7c4 <DIO_enumWritePinVal+0x28>
     806:	88 b3       	in	r24, 0x18	; 24
     808:	28 23       	and	r18, r24
     80a:	e0 cf       	rjmp	.-64     	; 0x7cc <DIO_enumWritePinVal+0x30>
     80c:	85 b3       	in	r24, 0x15	; 21
     80e:	28 23       	and	r18, r24
     810:	e2 cf       	rjmp	.-60     	; 0x7d6 <DIO_enumWritePinVal+0x3a>
     812:	82 b3       	in	r24, 0x12	; 18
     814:	28 23       	and	r18, r24
     816:	e3 cf       	rjmp	.-58     	; 0x7de <DIO_enumWritePinVal+0x42>
     818:	80 e0       	ldi	r24, 0x00	; 0
     81a:	08 95       	ret

0000081c <DIO_enumReadPinVal>:
     81c:	fa 01       	movw	r30, r20
     81e:	84 30       	cpi	r24, 0x04	; 4
     820:	18 f5       	brcc	.+70     	; 0x868 <__stack+0x9>
     822:	68 30       	cpi	r22, 0x08	; 8
     824:	08 f5       	brcc	.+66     	; 0x868 <__stack+0x9>
     826:	21 e0       	ldi	r18, 0x01	; 1
     828:	30 e0       	ldi	r19, 0x00	; 0
     82a:	06 2e       	mov	r0, r22
     82c:	02 c0       	rjmp	.+4      	; 0x832 <DIO_enumReadPinVal+0x16>
     82e:	22 0f       	add	r18, r18
     830:	33 1f       	adc	r19, r19
     832:	0a 94       	dec	r0
     834:	e2 f7       	brpl	.-8      	; 0x82e <DIO_enumReadPinVal+0x12>
     836:	82 30       	cpi	r24, 0x02	; 2
     838:	99 f0       	breq	.+38     	; 0x860 <__stack+0x1>
     83a:	83 30       	cpi	r24, 0x03	; 3
     83c:	99 f0       	breq	.+38     	; 0x864 <__stack+0x5>
     83e:	81 30       	cpi	r24, 0x01	; 1
     840:	69 f0       	breq	.+26     	; 0x85c <DIO_enumReadPinVal+0x40>
     842:	99 b3       	in	r25, 0x19	; 25
     844:	89 2f       	mov	r24, r25
     846:	90 e0       	ldi	r25, 0x00	; 0
     848:	82 23       	and	r24, r18
     84a:	93 23       	and	r25, r19
     84c:	02 c0       	rjmp	.+4      	; 0x852 <DIO_enumReadPinVal+0x36>
     84e:	95 95       	asr	r25
     850:	87 95       	ror	r24
     852:	6a 95       	dec	r22
     854:	e2 f7       	brpl	.-8      	; 0x84e <DIO_enumReadPinVal+0x32>
     856:	80 83       	st	Z, r24
     858:	81 e0       	ldi	r24, 0x01	; 1
     85a:	08 95       	ret
     85c:	96 b3       	in	r25, 0x16	; 22
     85e:	f2 cf       	rjmp	.-28     	; 0x844 <DIO_enumReadPinVal+0x28>
     860:	93 b3       	in	r25, 0x13	; 19
     862:	f0 cf       	rjmp	.-32     	; 0x844 <DIO_enumReadPinVal+0x28>
     864:	90 b3       	in	r25, 0x10	; 16
     866:	ee cf       	rjmp	.-36     	; 0x844 <DIO_enumReadPinVal+0x28>
     868:	80 e0       	ldi	r24, 0x00	; 0
     86a:	08 95       	ret

0000086c <DIO_enumTogglePinVal>:
     86c:	84 30       	cpi	r24, 0x04	; 4
     86e:	f8 f4       	brcc	.+62     	; 0x8ae <DIO_enumTogglePinVal+0x42>
     870:	68 30       	cpi	r22, 0x08	; 8
     872:	e8 f4       	brcc	.+58     	; 0x8ae <DIO_enumTogglePinVal+0x42>
     874:	21 e0       	ldi	r18, 0x01	; 1
     876:	30 e0       	ldi	r19, 0x00	; 0
     878:	01 c0       	rjmp	.+2      	; 0x87c <DIO_enumTogglePinVal+0x10>
     87a:	22 0f       	add	r18, r18
     87c:	6a 95       	dec	r22
     87e:	ea f7       	brpl	.-6      	; 0x87a <DIO_enumTogglePinVal+0xe>
     880:	82 30       	cpi	r24, 0x02	; 2
     882:	69 f0       	breq	.+26     	; 0x89e <DIO_enumTogglePinVal+0x32>
     884:	83 30       	cpi	r24, 0x03	; 3
     886:	79 f0       	breq	.+30     	; 0x8a6 <DIO_enumTogglePinVal+0x3a>
     888:	81 30       	cpi	r24, 0x01	; 1
     88a:	29 f0       	breq	.+10     	; 0x896 <DIO_enumTogglePinVal+0x2a>
     88c:	8b b3       	in	r24, 0x1b	; 27
     88e:	28 27       	eor	r18, r24
     890:	2b bb       	out	0x1b, r18	; 27
     892:	81 e0       	ldi	r24, 0x01	; 1
     894:	08 95       	ret
     896:	88 b3       	in	r24, 0x18	; 24
     898:	28 27       	eor	r18, r24
     89a:	28 bb       	out	0x18, r18	; 24
     89c:	fa cf       	rjmp	.-12     	; 0x892 <DIO_enumTogglePinVal+0x26>
     89e:	85 b3       	in	r24, 0x15	; 21
     8a0:	28 27       	eor	r18, r24
     8a2:	25 bb       	out	0x15, r18	; 21
     8a4:	f6 cf       	rjmp	.-20     	; 0x892 <DIO_enumTogglePinVal+0x26>
     8a6:	82 b3       	in	r24, 0x12	; 18
     8a8:	28 27       	eor	r18, r24
     8aa:	22 bb       	out	0x12, r18	; 18
     8ac:	f2 cf       	rjmp	.-28     	; 0x892 <DIO_enumTogglePinVal+0x26>
     8ae:	80 e0       	ldi	r24, 0x00	; 0
     8b0:	08 95       	ret

000008b2 <DIO_enumConnectPullUp>:
     8b2:	84 30       	cpi	r24, 0x04	; 4
     8b4:	08 f0       	brcs	.+2      	; 0x8b8 <DIO_enumConnectPullUp+0x6>
     8b6:	52 c0       	rjmp	.+164    	; 0x95c <DIO_enumConnectPullUp+0xaa>
     8b8:	68 30       	cpi	r22, 0x08	; 8
     8ba:	08 f0       	brcs	.+2      	; 0x8be <DIO_enumConnectPullUp+0xc>
     8bc:	4f c0       	rjmp	.+158    	; 0x95c <DIO_enumConnectPullUp+0xaa>
     8be:	21 e0       	ldi	r18, 0x01	; 1
     8c0:	30 e0       	ldi	r19, 0x00	; 0
     8c2:	01 c0       	rjmp	.+2      	; 0x8c6 <DIO_enumConnectPullUp+0x14>
     8c4:	22 0f       	add	r18, r18
     8c6:	6a 95       	dec	r22
     8c8:	ea f7       	brpl	.-6      	; 0x8c4 <DIO_enumConnectPullUp+0x12>
     8ca:	92 2f       	mov	r25, r18
     8cc:	90 95       	com	r25
     8ce:	82 30       	cpi	r24, 0x02	; 2
     8d0:	29 f1       	breq	.+74     	; 0x91c <DIO_enumConnectPullUp+0x6a>
     8d2:	83 30       	cpi	r24, 0x03	; 3
     8d4:	99 f1       	breq	.+102    	; 0x93c <DIO_enumConnectPullUp+0x8a>
     8d6:	81 30       	cpi	r24, 0x01	; 1
     8d8:	89 f0       	breq	.+34     	; 0x8fc <DIO_enumConnectPullUp+0x4a>
     8da:	41 30       	cpi	r20, 0x01	; 1
     8dc:	59 f4       	brne	.+22     	; 0x8f4 <DIO_enumConnectPullUp+0x42>
     8de:	80 b7       	in	r24, 0x30	; 48
     8e0:	8b 7f       	andi	r24, 0xFB	; 251
     8e2:	80 bf       	out	0x30, r24	; 48
     8e4:	8a b3       	in	r24, 0x1a	; 26
     8e6:	98 23       	and	r25, r24
     8e8:	9a bb       	out	0x1a, r25	; 26
     8ea:	8b b3       	in	r24, 0x1b	; 27
     8ec:	28 2b       	or	r18, r24
     8ee:	2b bb       	out	0x1b, r18	; 27
     8f0:	81 e0       	ldi	r24, 0x01	; 1
     8f2:	08 95       	ret
     8f4:	8b b3       	in	r24, 0x1b	; 27
     8f6:	98 23       	and	r25, r24
     8f8:	9b bb       	out	0x1b, r25	; 27
     8fa:	fa cf       	rjmp	.-12     	; 0x8f0 <DIO_enumConnectPullUp+0x3e>
     8fc:	41 30       	cpi	r20, 0x01	; 1
     8fe:	51 f4       	brne	.+20     	; 0x914 <DIO_enumConnectPullUp+0x62>
     900:	80 b7       	in	r24, 0x30	; 48
     902:	8b 7f       	andi	r24, 0xFB	; 251
     904:	80 bf       	out	0x30, r24	; 48
     906:	87 b3       	in	r24, 0x17	; 23
     908:	98 23       	and	r25, r24
     90a:	97 bb       	out	0x17, r25	; 23
     90c:	88 b3       	in	r24, 0x18	; 24
     90e:	28 2b       	or	r18, r24
     910:	28 bb       	out	0x18, r18	; 24
     912:	ee cf       	rjmp	.-36     	; 0x8f0 <DIO_enumConnectPullUp+0x3e>
     914:	88 b3       	in	r24, 0x18	; 24
     916:	98 23       	and	r25, r24
     918:	98 bb       	out	0x18, r25	; 24
     91a:	ea cf       	rjmp	.-44     	; 0x8f0 <DIO_enumConnectPullUp+0x3e>
     91c:	41 30       	cpi	r20, 0x01	; 1
     91e:	51 f4       	brne	.+20     	; 0x934 <DIO_enumConnectPullUp+0x82>
     920:	80 b7       	in	r24, 0x30	; 48
     922:	8b 7f       	andi	r24, 0xFB	; 251
     924:	80 bf       	out	0x30, r24	; 48
     926:	84 b3       	in	r24, 0x14	; 20
     928:	98 23       	and	r25, r24
     92a:	94 bb       	out	0x14, r25	; 20
     92c:	85 b3       	in	r24, 0x15	; 21
     92e:	28 2b       	or	r18, r24
     930:	25 bb       	out	0x15, r18	; 21
     932:	de cf       	rjmp	.-68     	; 0x8f0 <DIO_enumConnectPullUp+0x3e>
     934:	85 b3       	in	r24, 0x15	; 21
     936:	98 23       	and	r25, r24
     938:	95 bb       	out	0x15, r25	; 21
     93a:	da cf       	rjmp	.-76     	; 0x8f0 <DIO_enumConnectPullUp+0x3e>
     93c:	41 30       	cpi	r20, 0x01	; 1
     93e:	51 f4       	brne	.+20     	; 0x954 <DIO_enumConnectPullUp+0xa2>
     940:	80 b7       	in	r24, 0x30	; 48
     942:	8b 7f       	andi	r24, 0xFB	; 251
     944:	80 bf       	out	0x30, r24	; 48
     946:	81 b3       	in	r24, 0x11	; 17
     948:	98 23       	and	r25, r24
     94a:	91 bb       	out	0x11, r25	; 17
     94c:	82 b3       	in	r24, 0x12	; 18
     94e:	28 2b       	or	r18, r24
     950:	22 bb       	out	0x12, r18	; 18
     952:	ce cf       	rjmp	.-100    	; 0x8f0 <DIO_enumConnectPullUp+0x3e>
     954:	82 b3       	in	r24, 0x12	; 18
     956:	98 23       	and	r25, r24
     958:	92 bb       	out	0x12, r25	; 18
     95a:	ca cf       	rjmp	.-108    	; 0x8f0 <DIO_enumConnectPullUp+0x3e>
     95c:	80 e0       	ldi	r24, 0x00	; 0
     95e:	08 95       	ret

00000960 <DIO_enumSetPortDir>:
     960:	84 30       	cpi	r24, 0x04	; 4
     962:	78 f4       	brcc	.+30     	; 0x982 <DIO_enumSetPortDir+0x22>
     964:	82 30       	cpi	r24, 0x02	; 2
     966:	49 f0       	breq	.+18     	; 0x97a <DIO_enumSetPortDir+0x1a>
     968:	83 30       	cpi	r24, 0x03	; 3
     96a:	49 f0       	breq	.+18     	; 0x97e <DIO_enumSetPortDir+0x1e>
     96c:	81 30       	cpi	r24, 0x01	; 1
     96e:	19 f0       	breq	.+6      	; 0x976 <DIO_enumSetPortDir+0x16>
     970:	6a bb       	out	0x1a, r22	; 26
     972:	81 e0       	ldi	r24, 0x01	; 1
     974:	08 95       	ret
     976:	67 bb       	out	0x17, r22	; 23
     978:	fc cf       	rjmp	.-8      	; 0x972 <DIO_enumSetPortDir+0x12>
     97a:	64 bb       	out	0x14, r22	; 20
     97c:	fa cf       	rjmp	.-12     	; 0x972 <DIO_enumSetPortDir+0x12>
     97e:	61 bb       	out	0x11, r22	; 17
     980:	f8 cf       	rjmp	.-16     	; 0x972 <DIO_enumSetPortDir+0x12>
     982:	80 e0       	ldi	r24, 0x00	; 0
     984:	08 95       	ret

00000986 <DIO_enumWritePortVal>:
     986:	84 30       	cpi	r24, 0x04	; 4
     988:	78 f4       	brcc	.+30     	; 0x9a8 <DIO_enumWritePortVal+0x22>
     98a:	82 30       	cpi	r24, 0x02	; 2
     98c:	49 f0       	breq	.+18     	; 0x9a0 <DIO_enumWritePortVal+0x1a>
     98e:	83 30       	cpi	r24, 0x03	; 3
     990:	49 f0       	breq	.+18     	; 0x9a4 <DIO_enumWritePortVal+0x1e>
     992:	81 30       	cpi	r24, 0x01	; 1
     994:	19 f0       	breq	.+6      	; 0x99c <DIO_enumWritePortVal+0x16>
     996:	6b bb       	out	0x1b, r22	; 27
     998:	81 e0       	ldi	r24, 0x01	; 1
     99a:	08 95       	ret
     99c:	68 bb       	out	0x18, r22	; 24
     99e:	fc cf       	rjmp	.-8      	; 0x998 <DIO_enumWritePortVal+0x12>
     9a0:	65 bb       	out	0x15, r22	; 21
     9a2:	fa cf       	rjmp	.-12     	; 0x998 <DIO_enumWritePortVal+0x12>
     9a4:	62 bb       	out	0x12, r22	; 18
     9a6:	f8 cf       	rjmp	.-16     	; 0x998 <DIO_enumWritePortVal+0x12>
     9a8:	80 e0       	ldi	r24, 0x00	; 0
     9aa:	08 95       	ret

000009ac <DIO_enumReadPorVal>:
     9ac:	fb 01       	movw	r30, r22
     9ae:	84 30       	cpi	r24, 0x04	; 4
     9b0:	80 f4       	brcc	.+32     	; 0x9d2 <DIO_enumReadPorVal+0x26>
     9b2:	82 30       	cpi	r24, 0x02	; 2
     9b4:	51 f0       	breq	.+20     	; 0x9ca <DIO_enumReadPorVal+0x1e>
     9b6:	83 30       	cpi	r24, 0x03	; 3
     9b8:	51 f0       	breq	.+20     	; 0x9ce <DIO_enumReadPorVal+0x22>
     9ba:	81 30       	cpi	r24, 0x01	; 1
     9bc:	21 f0       	breq	.+8      	; 0x9c6 <DIO_enumReadPorVal+0x1a>
     9be:	89 b3       	in	r24, 0x19	; 25
     9c0:	80 83       	st	Z, r24
     9c2:	81 e0       	ldi	r24, 0x01	; 1
     9c4:	08 95       	ret
     9c6:	86 b3       	in	r24, 0x16	; 22
     9c8:	fb cf       	rjmp	.-10     	; 0x9c0 <DIO_enumReadPorVal+0x14>
     9ca:	83 b3       	in	r24, 0x13	; 19
     9cc:	f9 cf       	rjmp	.-14     	; 0x9c0 <DIO_enumReadPorVal+0x14>
     9ce:	80 b3       	in	r24, 0x10	; 16
     9d0:	f7 cf       	rjmp	.-18     	; 0x9c0 <DIO_enumReadPorVal+0x14>
     9d2:	80 e0       	ldi	r24, 0x00	; 0
     9d4:	08 95       	ret

000009d6 <DIO_enumTogglePortValue>:
     9d6:	84 30       	cpi	r24, 0x04	; 4
     9d8:	b8 f4       	brcc	.+46     	; 0xa08 <DIO_enumTogglePortValue+0x32>
     9da:	82 30       	cpi	r24, 0x02	; 2
     9dc:	69 f0       	breq	.+26     	; 0x9f8 <DIO_enumTogglePortValue+0x22>
     9de:	83 30       	cpi	r24, 0x03	; 3
     9e0:	79 f0       	breq	.+30     	; 0xa00 <DIO_enumTogglePortValue+0x2a>
     9e2:	81 30       	cpi	r24, 0x01	; 1
     9e4:	29 f0       	breq	.+10     	; 0x9f0 <DIO_enumTogglePortValue+0x1a>
     9e6:	8b b3       	in	r24, 0x1b	; 27
     9e8:	80 95       	com	r24
     9ea:	8b bb       	out	0x1b, r24	; 27
     9ec:	81 e0       	ldi	r24, 0x01	; 1
     9ee:	08 95       	ret
     9f0:	88 b3       	in	r24, 0x18	; 24
     9f2:	80 95       	com	r24
     9f4:	88 bb       	out	0x18, r24	; 24
     9f6:	fa cf       	rjmp	.-12     	; 0x9ec <DIO_enumTogglePortValue+0x16>
     9f8:	85 b3       	in	r24, 0x15	; 21
     9fa:	80 95       	com	r24
     9fc:	85 bb       	out	0x15, r24	; 21
     9fe:	f6 cf       	rjmp	.-20     	; 0x9ec <DIO_enumTogglePortValue+0x16>
     a00:	82 b3       	in	r24, 0x12	; 18
     a02:	80 95       	com	r24
     a04:	82 bb       	out	0x12, r24	; 18
     a06:	f2 cf       	rjmp	.-28     	; 0x9ec <DIO_enumTogglePortValue+0x16>
     a08:	80 e0       	ldi	r24, 0x00	; 0
     a0a:	08 95       	ret

00000a0c <DIO_vWriteLowNibble>:
     a0c:	84 30       	cpi	r24, 0x04	; 4
     a0e:	20 f5       	brcc	.+72     	; 0xa58 <DIO_vWriteLowNibble+0x4c>
     a10:	6f 70       	andi	r22, 0x0F	; 15
     a12:	82 30       	cpi	r24, 0x02	; 2
     a14:	99 f0       	breq	.+38     	; 0xa3c <DIO_vWriteLowNibble+0x30>
     a16:	83 30       	cpi	r24, 0x03	; 3
     a18:	c1 f0       	breq	.+48     	; 0xa4a <DIO_vWriteLowNibble+0x3e>
     a1a:	81 30       	cpi	r24, 0x01	; 1
     a1c:	41 f0       	breq	.+16     	; 0xa2e <DIO_vWriteLowNibble+0x22>
     a1e:	8b b3       	in	r24, 0x1b	; 27
     a20:	80 7f       	andi	r24, 0xF0	; 240
     a22:	8b bb       	out	0x1b, r24	; 27
     a24:	8b b3       	in	r24, 0x1b	; 27
     a26:	68 2b       	or	r22, r24
     a28:	6b bb       	out	0x1b, r22	; 27
     a2a:	81 e0       	ldi	r24, 0x01	; 1
     a2c:	08 95       	ret
     a2e:	88 b3       	in	r24, 0x18	; 24
     a30:	80 7f       	andi	r24, 0xF0	; 240
     a32:	88 bb       	out	0x18, r24	; 24
     a34:	88 b3       	in	r24, 0x18	; 24
     a36:	68 2b       	or	r22, r24
     a38:	68 bb       	out	0x18, r22	; 24
     a3a:	f7 cf       	rjmp	.-18     	; 0xa2a <DIO_vWriteLowNibble+0x1e>
     a3c:	85 b3       	in	r24, 0x15	; 21
     a3e:	80 7f       	andi	r24, 0xF0	; 240
     a40:	85 bb       	out	0x15, r24	; 21
     a42:	85 b3       	in	r24, 0x15	; 21
     a44:	68 2b       	or	r22, r24
     a46:	65 bb       	out	0x15, r22	; 21
     a48:	f0 cf       	rjmp	.-32     	; 0xa2a <DIO_vWriteLowNibble+0x1e>
     a4a:	82 b3       	in	r24, 0x12	; 18
     a4c:	80 7f       	andi	r24, 0xF0	; 240
     a4e:	82 bb       	out	0x12, r24	; 18
     a50:	82 b3       	in	r24, 0x12	; 18
     a52:	68 2b       	or	r22, r24
     a54:	62 bb       	out	0x12, r22	; 18
     a56:	e9 cf       	rjmp	.-46     	; 0xa2a <DIO_vWriteLowNibble+0x1e>
     a58:	80 e0       	ldi	r24, 0x00	; 0
     a5a:	08 95       	ret

00000a5c <DIO_vWriteHighNibble>:
     a5c:	84 30       	cpi	r24, 0x04	; 4
     a5e:	28 f5       	brcc	.+74     	; 0xaaa <DIO_vWriteHighNibble+0x4e>
     a60:	62 95       	swap	r22
     a62:	60 7f       	andi	r22, 0xF0	; 240
     a64:	82 30       	cpi	r24, 0x02	; 2
     a66:	99 f0       	breq	.+38     	; 0xa8e <DIO_vWriteHighNibble+0x32>
     a68:	83 30       	cpi	r24, 0x03	; 3
     a6a:	c1 f0       	breq	.+48     	; 0xa9c <DIO_vWriteHighNibble+0x40>
     a6c:	81 30       	cpi	r24, 0x01	; 1
     a6e:	41 f0       	breq	.+16     	; 0xa80 <DIO_vWriteHighNibble+0x24>
     a70:	8b b3       	in	r24, 0x1b	; 27
     a72:	8f 70       	andi	r24, 0x0F	; 15
     a74:	8b bb       	out	0x1b, r24	; 27
     a76:	8b b3       	in	r24, 0x1b	; 27
     a78:	68 2b       	or	r22, r24
     a7a:	6b bb       	out	0x1b, r22	; 27
     a7c:	81 e0       	ldi	r24, 0x01	; 1
     a7e:	08 95       	ret
     a80:	88 b3       	in	r24, 0x18	; 24
     a82:	8f 70       	andi	r24, 0x0F	; 15
     a84:	88 bb       	out	0x18, r24	; 24
     a86:	88 b3       	in	r24, 0x18	; 24
     a88:	68 2b       	or	r22, r24
     a8a:	68 bb       	out	0x18, r22	; 24
     a8c:	f7 cf       	rjmp	.-18     	; 0xa7c <DIO_vWriteHighNibble+0x20>
     a8e:	85 b3       	in	r24, 0x15	; 21
     a90:	8f 70       	andi	r24, 0x0F	; 15
     a92:	85 bb       	out	0x15, r24	; 21
     a94:	85 b3       	in	r24, 0x15	; 21
     a96:	68 2b       	or	r22, r24
     a98:	65 bb       	out	0x15, r22	; 21
     a9a:	f0 cf       	rjmp	.-32     	; 0xa7c <DIO_vWriteHighNibble+0x20>
     a9c:	82 b3       	in	r24, 0x12	; 18
     a9e:	8f 70       	andi	r24, 0x0F	; 15
     aa0:	82 bb       	out	0x12, r24	; 18
     aa2:	82 b3       	in	r24, 0x12	; 18
     aa4:	68 2b       	or	r22, r24
     aa6:	62 bb       	out	0x12, r22	; 18
     aa8:	e9 cf       	rjmp	.-46     	; 0xa7c <DIO_vWriteHighNibble+0x20>
     aaa:	80 e0       	ldi	r24, 0x00	; 0
     aac:	08 95       	ret

00000aae <DIO_vSetLowNibbleDir>:
     aae:	84 30       	cpi	r24, 0x04	; 4
     ab0:	20 f5       	brcc	.+72     	; 0xafa <DIO_vSetLowNibbleDir+0x4c>
     ab2:	6f 70       	andi	r22, 0x0F	; 15
     ab4:	82 30       	cpi	r24, 0x02	; 2
     ab6:	99 f0       	breq	.+38     	; 0xade <DIO_vSetLowNibbleDir+0x30>
     ab8:	83 30       	cpi	r24, 0x03	; 3
     aba:	c1 f0       	breq	.+48     	; 0xaec <DIO_vSetLowNibbleDir+0x3e>
     abc:	81 30       	cpi	r24, 0x01	; 1
     abe:	41 f0       	breq	.+16     	; 0xad0 <DIO_vSetLowNibbleDir+0x22>
     ac0:	8a b3       	in	r24, 0x1a	; 26
     ac2:	80 7f       	andi	r24, 0xF0	; 240
     ac4:	8a bb       	out	0x1a, r24	; 26
     ac6:	8a b3       	in	r24, 0x1a	; 26
     ac8:	68 2b       	or	r22, r24
     aca:	6a bb       	out	0x1a, r22	; 26
     acc:	81 e0       	ldi	r24, 0x01	; 1
     ace:	08 95       	ret
     ad0:	87 b3       	in	r24, 0x17	; 23
     ad2:	80 7f       	andi	r24, 0xF0	; 240
     ad4:	87 bb       	out	0x17, r24	; 23
     ad6:	87 b3       	in	r24, 0x17	; 23
     ad8:	68 2b       	or	r22, r24
     ada:	67 bb       	out	0x17, r22	; 23
     adc:	f7 cf       	rjmp	.-18     	; 0xacc <DIO_vSetLowNibbleDir+0x1e>
     ade:	84 b3       	in	r24, 0x14	; 20
     ae0:	80 7f       	andi	r24, 0xF0	; 240
     ae2:	84 bb       	out	0x14, r24	; 20
     ae4:	84 b3       	in	r24, 0x14	; 20
     ae6:	68 2b       	or	r22, r24
     ae8:	64 bb       	out	0x14, r22	; 20
     aea:	f0 cf       	rjmp	.-32     	; 0xacc <DIO_vSetLowNibbleDir+0x1e>
     aec:	81 b3       	in	r24, 0x11	; 17
     aee:	80 7f       	andi	r24, 0xF0	; 240
     af0:	81 bb       	out	0x11, r24	; 17
     af2:	81 b3       	in	r24, 0x11	; 17
     af4:	68 2b       	or	r22, r24
     af6:	61 bb       	out	0x11, r22	; 17
     af8:	e9 cf       	rjmp	.-46     	; 0xacc <DIO_vSetLowNibbleDir+0x1e>
     afa:	80 e0       	ldi	r24, 0x00	; 0
     afc:	08 95       	ret

00000afe <DIO_vSetHighNibbleDir>:
     afe:	84 30       	cpi	r24, 0x04	; 4
     b00:	28 f5       	brcc	.+74     	; 0xb4c <DIO_vSetHighNibbleDir+0x4e>
     b02:	62 95       	swap	r22
     b04:	60 7f       	andi	r22, 0xF0	; 240
     b06:	82 30       	cpi	r24, 0x02	; 2
     b08:	99 f0       	breq	.+38     	; 0xb30 <DIO_vSetHighNibbleDir+0x32>
     b0a:	83 30       	cpi	r24, 0x03	; 3
     b0c:	c1 f0       	breq	.+48     	; 0xb3e <DIO_vSetHighNibbleDir+0x40>
     b0e:	81 30       	cpi	r24, 0x01	; 1
     b10:	41 f0       	breq	.+16     	; 0xb22 <DIO_vSetHighNibbleDir+0x24>
     b12:	8a b3       	in	r24, 0x1a	; 26
     b14:	8f 70       	andi	r24, 0x0F	; 15
     b16:	8a bb       	out	0x1a, r24	; 26
     b18:	8a b3       	in	r24, 0x1a	; 26
     b1a:	68 2b       	or	r22, r24
     b1c:	6a bb       	out	0x1a, r22	; 26
     b1e:	81 e0       	ldi	r24, 0x01	; 1
     b20:	08 95       	ret
     b22:	87 b3       	in	r24, 0x17	; 23
     b24:	8f 70       	andi	r24, 0x0F	; 15
     b26:	87 bb       	out	0x17, r24	; 23
     b28:	87 b3       	in	r24, 0x17	; 23
     b2a:	68 2b       	or	r22, r24
     b2c:	67 bb       	out	0x17, r22	; 23
     b2e:	f7 cf       	rjmp	.-18     	; 0xb1e <DIO_vSetHighNibbleDir+0x20>
     b30:	84 b3       	in	r24, 0x14	; 20
     b32:	8f 70       	andi	r24, 0x0F	; 15
     b34:	84 bb       	out	0x14, r24	; 20
     b36:	84 b3       	in	r24, 0x14	; 20
     b38:	68 2b       	or	r22, r24
     b3a:	64 bb       	out	0x14, r22	; 20
     b3c:	f0 cf       	rjmp	.-32     	; 0xb1e <DIO_vSetHighNibbleDir+0x20>
     b3e:	81 b3       	in	r24, 0x11	; 17
     b40:	8f 70       	andi	r24, 0x0F	; 15
     b42:	81 bb       	out	0x11, r24	; 17
     b44:	81 b3       	in	r24, 0x11	; 17
     b46:	68 2b       	or	r22, r24
     b48:	61 bb       	out	0x11, r22	; 17
     b4a:	e9 cf       	rjmp	.-46     	; 0xb1e <DIO_vSetHighNibbleDir+0x20>
     b4c:	80 e0       	ldi	r24, 0x00	; 0
     b4e:	08 95       	ret

00000b50 <EEPROM_vWrite>:
     b50:	9f bb       	out	0x1f, r25	; 31
     b52:	8e bb       	out	0x1e, r24	; 30
     b54:	6d bb       	out	0x1d, r22	; 29
     b56:	e2 9a       	sbi	0x1c, 2	; 28
     b58:	e1 9a       	sbi	0x1c, 1	; 28
     b5a:	e1 99       	sbic	0x1c, 1	; 28
     b5c:	fe cf       	rjmp	.-4      	; 0xb5a <EEPROM_vWrite+0xa>
     b5e:	08 95       	ret

00000b60 <EEPROM_vRead>:
     b60:	8e bb       	out	0x1e, r24	; 30
     b62:	9f bb       	out	0x1f, r25	; 31
     b64:	e0 9a       	sbi	0x1c, 0	; 28
     b66:	8d b3       	in	r24, 0x1d	; 29
     b68:	08 95       	ret

00000b6a <EXTI_vInit>:
     b6a:	85 b7       	in	r24, 0x35	; 53
     b6c:	8e 7f       	andi	r24, 0xFE	; 254
     b6e:	85 bf       	out	0x35, r24	; 53
     b70:	85 b7       	in	r24, 0x35	; 53
     b72:	82 60       	ori	r24, 0x02	; 2
     b74:	85 bf       	out	0x35, r24	; 53
     b76:	08 95       	ret

00000b78 <EXTI_vSetSignal>:
     b78:	9a ef       	ldi	r25, 0xFA	; 250
     b7a:	96 0f       	add	r25, r22
     b7c:	92 30       	cpi	r25, 0x02	; 2
     b7e:	08 f0       	brcs	.+2      	; 0xb82 <EXTI_vSetSignal+0xa>
     b80:	53 c0       	rjmp	.+166    	; 0xc28 <EXTI_vSetSignal+0xb0>
     b82:	69 2f       	mov	r22, r25
     b84:	66 0f       	add	r22, r22
     b86:	81 30       	cpi	r24, 0x01	; 1
     b88:	e1 f1       	breq	.+120    	; 0xc02 <EXTI_vSetSignal+0x8a>
     b8a:	30 f1       	brcs	.+76     	; 0xbd8 <EXTI_vSetSignal+0x60>
     b8c:	82 30       	cpi	r24, 0x02	; 2
     b8e:	19 f0       	breq	.+6      	; 0xb96 <EXTI_vSetSignal+0x1e>
     b90:	83 30       	cpi	r24, 0x03	; 3
     b92:	b9 f0       	breq	.+46     	; 0xbc2 <EXTI_vSetSignal+0x4a>
     b94:	08 95       	ret
     b96:	45 b7       	in	r20, 0x35	; 53
     b98:	81 e0       	ldi	r24, 0x01	; 1
     b9a:	90 e0       	ldi	r25, 0x00	; 0
     b9c:	9c 01       	movw	r18, r24
     b9e:	06 2e       	mov	r0, r22
     ba0:	01 c0       	rjmp	.+2      	; 0xba4 <EXTI_vSetSignal+0x2c>
     ba2:	22 0f       	add	r18, r18
     ba4:	0a 94       	dec	r0
     ba6:	ea f7       	brpl	.-6      	; 0xba2 <EXTI_vSetSignal+0x2a>
     ba8:	20 95       	com	r18
     baa:	24 23       	and	r18, r20
     bac:	25 bf       	out	0x35, r18	; 53
     bae:	25 b7       	in	r18, 0x35	; 53
     bb0:	6f 5f       	subi	r22, 0xFF	; 255
     bb2:	01 c0       	rjmp	.+2      	; 0xbb6 <EXTI_vSetSignal+0x3e>
     bb4:	88 0f       	add	r24, r24
     bb6:	6a 95       	dec	r22
     bb8:	ea f7       	brpl	.-6      	; 0xbb4 <EXTI_vSetSignal+0x3c>
     bba:	80 95       	com	r24
     bbc:	82 23       	and	r24, r18
     bbe:	85 bf       	out	0x35, r24	; 53
     bc0:	08 95       	ret
     bc2:	25 b7       	in	r18, 0x35	; 53
     bc4:	81 e0       	ldi	r24, 0x01	; 1
     bc6:	90 e0       	ldi	r25, 0x00	; 0
     bc8:	ac 01       	movw	r20, r24
     bca:	06 2e       	mov	r0, r22
     bcc:	01 c0       	rjmp	.+2      	; 0xbd0 <EXTI_vSetSignal+0x58>
     bce:	44 0f       	add	r20, r20
     bd0:	0a 94       	dec	r0
     bd2:	ea f7       	brpl	.-6      	; 0xbce <EXTI_vSetSignal+0x56>
     bd4:	24 2b       	or	r18, r20
     bd6:	ea cf       	rjmp	.-44     	; 0xbac <EXTI_vSetSignal+0x34>
     bd8:	45 b7       	in	r20, 0x35	; 53
     bda:	21 e0       	ldi	r18, 0x01	; 1
     bdc:	30 e0       	ldi	r19, 0x00	; 0
     bde:	c9 01       	movw	r24, r18
     be0:	06 2e       	mov	r0, r22
     be2:	01 c0       	rjmp	.+2      	; 0xbe6 <EXTI_vSetSignal+0x6e>
     be4:	88 0f       	add	r24, r24
     be6:	0a 94       	dec	r0
     be8:	ea f7       	brpl	.-6      	; 0xbe4 <EXTI_vSetSignal+0x6c>
     bea:	80 95       	com	r24
     bec:	84 23       	and	r24, r20
     bee:	85 bf       	out	0x35, r24	; 53
     bf0:	85 b7       	in	r24, 0x35	; 53
     bf2:	6f 5f       	subi	r22, 0xFF	; 255
     bf4:	01 c0       	rjmp	.+2      	; 0xbf8 <EXTI_vSetSignal+0x80>
     bf6:	22 0f       	add	r18, r18
     bf8:	6a 95       	dec	r22
     bfa:	ea f7       	brpl	.-6      	; 0xbf6 <EXTI_vSetSignal+0x7e>
     bfc:	28 2b       	or	r18, r24
     bfe:	25 bf       	out	0x35, r18	; 53
     c00:	08 95       	ret
     c02:	25 b7       	in	r18, 0x35	; 53
     c04:	81 e0       	ldi	r24, 0x01	; 1
     c06:	90 e0       	ldi	r25, 0x00	; 0
     c08:	ac 01       	movw	r20, r24
     c0a:	06 2e       	mov	r0, r22
     c0c:	01 c0       	rjmp	.+2      	; 0xc10 <EXTI_vSetSignal+0x98>
     c0e:	44 0f       	add	r20, r20
     c10:	0a 94       	dec	r0
     c12:	ea f7       	brpl	.-6      	; 0xc0e <EXTI_vSetSignal+0x96>
     c14:	24 2b       	or	r18, r20
     c16:	25 bf       	out	0x35, r18	; 53
     c18:	25 b7       	in	r18, 0x35	; 53
     c1a:	6f 5f       	subi	r22, 0xFF	; 255
     c1c:	01 c0       	rjmp	.+2      	; 0xc20 <EXTI_vSetSignal+0xa8>
     c1e:	88 0f       	add	r24, r24
     c20:	6a 95       	dec	r22
     c22:	ea f7       	brpl	.-6      	; 0xc1e <EXTI_vSetSignal+0xa6>
     c24:	82 2b       	or	r24, r18
     c26:	cb cf       	rjmp	.-106    	; 0xbbe <EXTI_vSetSignal+0x46>
     c28:	65 30       	cpi	r22, 0x05	; 5
     c2a:	41 f4       	brne	.+16     	; 0xc3c <EXTI_vSetSignal+0xc4>
     c2c:	88 23       	and	r24, r24
     c2e:	19 f0       	breq	.+6      	; 0xc36 <EXTI_vSetSignal+0xbe>
     c30:	81 30       	cpi	r24, 0x01	; 1
     c32:	29 f0       	breq	.+10     	; 0xc3e <EXTI_vSetSignal+0xc6>
     c34:	08 95       	ret
     c36:	84 b7       	in	r24, 0x34	; 52
     c38:	8f 7b       	andi	r24, 0xBF	; 191
     c3a:	84 bf       	out	0x34, r24	; 52
     c3c:	08 95       	ret
     c3e:	84 b7       	in	r24, 0x34	; 52
     c40:	80 64       	ori	r24, 0x40	; 64
     c42:	fb cf       	rjmp	.-10     	; 0xc3a <EXTI_vSetSignal+0xc2>

00000c44 <EXTI_vDisableInterrupt>:
     c44:	9b ef       	ldi	r25, 0xFB	; 251
     c46:	98 0f       	add	r25, r24
     c48:	93 30       	cpi	r25, 0x03	; 3
     c4a:	78 f4       	brcc	.+30     	; 0xc6a <EXTI_vDisableInterrupt+0x26>
     c4c:	4b b7       	in	r20, 0x3b	; 59
     c4e:	21 e0       	ldi	r18, 0x01	; 1
     c50:	30 e0       	ldi	r19, 0x00	; 0
     c52:	b9 01       	movw	r22, r18
     c54:	02 c0       	rjmp	.+4      	; 0xc5a <EXTI_vDisableInterrupt+0x16>
     c56:	66 0f       	add	r22, r22
     c58:	77 1f       	adc	r23, r23
     c5a:	8a 95       	dec	r24
     c5c:	e2 f7       	brpl	.-8      	; 0xc56 <EXTI_vDisableInterrupt+0x12>
     c5e:	cb 01       	movw	r24, r22
     c60:	80 95       	com	r24
     c62:	84 23       	and	r24, r20
     c64:	8b bf       	out	0x3b, r24	; 59
     c66:	80 e0       	ldi	r24, 0x00	; 0
     c68:	08 95       	ret
     c6a:	81 e0       	ldi	r24, 0x01	; 1
     c6c:	08 95       	ret

00000c6e <EXTI_vEnableInterrupt>:
     c6e:	9b ef       	ldi	r25, 0xFB	; 251
     c70:	98 0f       	add	r25, r24
     c72:	93 30       	cpi	r25, 0x03	; 3
     c74:	60 f4       	brcc	.+24     	; 0xc8e <EXTI_vEnableInterrupt+0x20>
     c76:	9b b7       	in	r25, 0x3b	; 59
     c78:	21 e0       	ldi	r18, 0x01	; 1
     c7a:	30 e0       	ldi	r19, 0x00	; 0
     c7c:	01 c0       	rjmp	.+2      	; 0xc80 <EXTI_vEnableInterrupt+0x12>
     c7e:	22 0f       	add	r18, r18
     c80:	8a 95       	dec	r24
     c82:	ea f7       	brpl	.-6      	; 0xc7e <EXTI_vEnableInterrupt+0x10>
     c84:	89 2f       	mov	r24, r25
     c86:	82 2b       	or	r24, r18
     c88:	8b bf       	out	0x3b, r24	; 59
     c8a:	80 e0       	ldi	r24, 0x00	; 0
     c8c:	08 95       	ret
     c8e:	81 e0       	ldi	r24, 0x01	; 1
     c90:	08 95       	ret

00000c92 <EXTI_vClearFlag>:
     c92:	9a b7       	in	r25, 0x3a	; 58
     c94:	21 e0       	ldi	r18, 0x01	; 1
     c96:	30 e0       	ldi	r19, 0x00	; 0
     c98:	01 c0       	rjmp	.+2      	; 0xc9c <EXTI_vClearFlag+0xa>
     c9a:	22 0f       	add	r18, r18
     c9c:	8a 95       	dec	r24
     c9e:	ea f7       	brpl	.-6      	; 0xc9a <EXTI_vClearFlag+0x8>
     ca0:	92 2b       	or	r25, r18
     ca2:	9a bf       	out	0x3a, r25	; 58
     ca4:	08 95       	ret

00000ca6 <EXTI_u8GETFlag>:
     ca6:	4a b7       	in	r20, 0x3a	; 58
     ca8:	21 e0       	ldi	r18, 0x01	; 1
     caa:	30 e0       	ldi	r19, 0x00	; 0
     cac:	08 2e       	mov	r0, r24
     cae:	02 c0       	rjmp	.+4      	; 0xcb4 <EXTI_u8GETFlag+0xe>
     cb0:	22 0f       	add	r18, r18
     cb2:	33 1f       	adc	r19, r19
     cb4:	0a 94       	dec	r0
     cb6:	e2 f7       	brpl	.-8      	; 0xcb0 <EXTI_u8GETFlag+0xa>
     cb8:	50 e0       	ldi	r21, 0x00	; 0
     cba:	24 23       	and	r18, r20
     cbc:	35 23       	and	r19, r21
     cbe:	a9 01       	movw	r20, r18
     cc0:	02 c0       	rjmp	.+4      	; 0xcc6 <EXTI_u8GETFlag+0x20>
     cc2:	55 95       	asr	r21
     cc4:	47 95       	ror	r20
     cc6:	8a 95       	dec	r24
     cc8:	e2 f7       	brpl	.-8      	; 0xcc2 <EXTI_u8GETFlag+0x1c>
     cca:	ca 01       	movw	r24, r20
     ccc:	08 95       	ret

00000cce <EXTI_vSetCallBack>:
     cce:	00 97       	sbiw	r24, 0x00	; 0
     cd0:	b1 f0       	breq	.+44     	; 0xcfe <EXTI_vSetCallBack+0x30>
     cd2:	66 30       	cpi	r22, 0x06	; 6
     cd4:	31 f4       	brne	.+12     	; 0xce2 <EXTI_vSetCallBack+0x14>
     cd6:	90 93 07 02 	sts	0x0207, r25	; 0x800207 <EXTI_CallBack+0x1>
     cda:	80 93 06 02 	sts	0x0206, r24	; 0x800206 <EXTI_CallBack>
     cde:	80 e0       	ldi	r24, 0x00	; 0
     ce0:	08 95       	ret
     ce2:	67 30       	cpi	r22, 0x07	; 7
     ce4:	29 f4       	brne	.+10     	; 0xcf0 <EXTI_vSetCallBack+0x22>
     ce6:	90 93 09 02 	sts	0x0209, r25	; 0x800209 <EXTI_CallBack+0x3>
     cea:	80 93 08 02 	sts	0x0208, r24	; 0x800208 <EXTI_CallBack+0x2>
     cee:	f7 cf       	rjmp	.-18     	; 0xcde <EXTI_vSetCallBack+0x10>
     cf0:	65 30       	cpi	r22, 0x05	; 5
     cf2:	29 f4       	brne	.+10     	; 0xcfe <EXTI_vSetCallBack+0x30>
     cf4:	90 93 0b 02 	sts	0x020B, r25	; 0x80020b <EXTI_CallBack+0x5>
     cf8:	80 93 0a 02 	sts	0x020A, r24	; 0x80020a <EXTI_CallBack+0x4>
     cfc:	f0 cf       	rjmp	.-32     	; 0xcde <EXTI_vSetCallBack+0x10>
     cfe:	81 e0       	ldi	r24, 0x01	; 1
     d00:	08 95       	ret

00000d02 <__vector_1>:
     d02:	1f 92       	push	r1
     d04:	0f 92       	push	r0
     d06:	0f b6       	in	r0, 0x3f	; 63
     d08:	0f 92       	push	r0
     d0a:	11 24       	eor	r1, r1
     d0c:	2f 93       	push	r18
     d0e:	3f 93       	push	r19
     d10:	4f 93       	push	r20
     d12:	5f 93       	push	r21
     d14:	6f 93       	push	r22
     d16:	7f 93       	push	r23
     d18:	8f 93       	push	r24
     d1a:	9f 93       	push	r25
     d1c:	af 93       	push	r26
     d1e:	bf 93       	push	r27
     d20:	ef 93       	push	r30
     d22:	ff 93       	push	r31
     d24:	e0 91 06 02 	lds	r30, 0x0206	; 0x800206 <EXTI_CallBack>
     d28:	f0 91 07 02 	lds	r31, 0x0207	; 0x800207 <EXTI_CallBack+0x1>
     d2c:	30 97       	sbiw	r30, 0x00	; 0
     d2e:	21 f0       	breq	.+8      	; 0xd38 <__vector_1+0x36>
     d30:	09 95       	icall
     d32:	86 e0       	ldi	r24, 0x06	; 6
     d34:	0e 94 49 06 	call	0xc92	; 0xc92 <EXTI_vClearFlag>
     d38:	ff 91       	pop	r31
     d3a:	ef 91       	pop	r30
     d3c:	bf 91       	pop	r27
     d3e:	af 91       	pop	r26
     d40:	9f 91       	pop	r25
     d42:	8f 91       	pop	r24
     d44:	7f 91       	pop	r23
     d46:	6f 91       	pop	r22
     d48:	5f 91       	pop	r21
     d4a:	4f 91       	pop	r20
     d4c:	3f 91       	pop	r19
     d4e:	2f 91       	pop	r18
     d50:	0f 90       	pop	r0
     d52:	0f be       	out	0x3f, r0	; 63
     d54:	0f 90       	pop	r0
     d56:	1f 90       	pop	r1
     d58:	18 95       	reti

00000d5a <__vector_2>:
     d5a:	1f 92       	push	r1
     d5c:	0f 92       	push	r0
     d5e:	0f b6       	in	r0, 0x3f	; 63
     d60:	0f 92       	push	r0
     d62:	11 24       	eor	r1, r1
     d64:	2f 93       	push	r18
     d66:	3f 93       	push	r19
     d68:	4f 93       	push	r20
     d6a:	5f 93       	push	r21
     d6c:	6f 93       	push	r22
     d6e:	7f 93       	push	r23
     d70:	8f 93       	push	r24
     d72:	9f 93       	push	r25
     d74:	af 93       	push	r26
     d76:	bf 93       	push	r27
     d78:	ef 93       	push	r30
     d7a:	ff 93       	push	r31
     d7c:	e0 91 08 02 	lds	r30, 0x0208	; 0x800208 <EXTI_CallBack+0x2>
     d80:	f0 91 09 02 	lds	r31, 0x0209	; 0x800209 <EXTI_CallBack+0x3>
     d84:	30 97       	sbiw	r30, 0x00	; 0
     d86:	21 f0       	breq	.+8      	; 0xd90 <__vector_2+0x36>
     d88:	09 95       	icall
     d8a:	87 e0       	ldi	r24, 0x07	; 7
     d8c:	0e 94 49 06 	call	0xc92	; 0xc92 <EXTI_vClearFlag>
     d90:	ff 91       	pop	r31
     d92:	ef 91       	pop	r30
     d94:	bf 91       	pop	r27
     d96:	af 91       	pop	r26
     d98:	9f 91       	pop	r25
     d9a:	8f 91       	pop	r24
     d9c:	7f 91       	pop	r23
     d9e:	6f 91       	pop	r22
     da0:	5f 91       	pop	r21
     da2:	4f 91       	pop	r20
     da4:	3f 91       	pop	r19
     da6:	2f 91       	pop	r18
     da8:	0f 90       	pop	r0
     daa:	0f be       	out	0x3f, r0	; 63
     dac:	0f 90       	pop	r0
     dae:	1f 90       	pop	r1
     db0:	18 95       	reti

00000db2 <__vector_3>:
     db2:	1f 92       	push	r1
     db4:	0f 92       	push	r0
     db6:	0f b6       	in	r0, 0x3f	; 63
     db8:	0f 92       	push	r0
     dba:	11 24       	eor	r1, r1
     dbc:	2f 93       	push	r18
     dbe:	3f 93       	push	r19
     dc0:	4f 93       	push	r20
     dc2:	5f 93       	push	r21
     dc4:	6f 93       	push	r22
     dc6:	7f 93       	push	r23
     dc8:	8f 93       	push	r24
     dca:	9f 93       	push	r25
     dcc:	af 93       	push	r26
     dce:	bf 93       	push	r27
     dd0:	ef 93       	push	r30
     dd2:	ff 93       	push	r31
     dd4:	e0 91 0a 02 	lds	r30, 0x020A	; 0x80020a <EXTI_CallBack+0x4>
     dd8:	f0 91 0b 02 	lds	r31, 0x020B	; 0x80020b <EXTI_CallBack+0x5>
     ddc:	30 97       	sbiw	r30, 0x00	; 0
     dde:	21 f0       	breq	.+8      	; 0xde8 <__vector_3+0x36>
     de0:	09 95       	icall
     de2:	85 e0       	ldi	r24, 0x05	; 5
     de4:	0e 94 49 06 	call	0xc92	; 0xc92 <EXTI_vClearFlag>
     de8:	ff 91       	pop	r31
     dea:	ef 91       	pop	r30
     dec:	bf 91       	pop	r27
     dee:	af 91       	pop	r26
     df0:	9f 91       	pop	r25
     df2:	8f 91       	pop	r24
     df4:	7f 91       	pop	r23
     df6:	6f 91       	pop	r22
     df8:	5f 91       	pop	r21
     dfa:	4f 91       	pop	r20
     dfc:	3f 91       	pop	r19
     dfe:	2f 91       	pop	r18
     e00:	0f 90       	pop	r0
     e02:	0f be       	out	0x3f, r0	; 63
     e04:	0f 90       	pop	r0
     e06:	1f 90       	pop	r1
     e08:	18 95       	reti

00000e0a <GIE_vEnable>:
     e0a:	8f b7       	in	r24, 0x3f	; 63
     e0c:	80 68       	ori	r24, 0x80	; 128
     e0e:	8f bf       	out	0x3f, r24	; 63
     e10:	08 95       	ret

00000e12 <GIE_vDisable>:
     e12:	8f b7       	in	r24, 0x3f	; 63
     e14:	8f 77       	andi	r24, 0x7F	; 127
     e16:	8f bf       	out	0x3f, r24	; 63
     e18:	08 95       	ret

00000e1a <LDR_u8GetLightPres>:
     e1a:	ef 92       	push	r14
     e1c:	ff 92       	push	r15
     e1e:	0f 93       	push	r16
     e20:	1f 93       	push	r17
     e22:	cf 93       	push	r28
     e24:	df 93       	push	r29
     e26:	00 d0       	rcall	.+0      	; 0xe28 <LDR_u8GetLightPres+0xe>
     e28:	cd b7       	in	r28, 0x3d	; 61
     e2a:	de b7       	in	r29, 0x3e	; 62
     e2c:	7c 01       	movw	r14, r24
     e2e:	8b 01       	movw	r16, r22
     e30:	be 01       	movw	r22, r28
     e32:	6f 5f       	subi	r22, 0xFF	; 255
     e34:	7f 4f       	sbci	r23, 0xFF	; 255
     e36:	fc 01       	movw	r30, r24
     e38:	80 81       	ld	r24, Z
     e3a:	0e 94 97 00 	call	0x12e	; 0x12e <ADC_u8GetResultSync>
     e3e:	f7 01       	movw	r30, r14
     e40:	82 81       	ldd	r24, Z+2	; 0x02
     e42:	81 11       	cpse	r24, r1
     e44:	20 c0       	rjmp	.+64     	; 0xe86 <LDR_u8GetLightPres+0x6c>
     e46:	69 81       	ldd	r22, Y+1	; 0x01
     e48:	7a 81       	ldd	r23, Y+2	; 0x02
     e4a:	90 e0       	ldi	r25, 0x00	; 0
     e4c:	80 e0       	ldi	r24, 0x00	; 0
     e4e:	0e 94 30 12 	call	0x2460	; 0x2460 <__floatunsisf>
     e52:	20 e0       	ldi	r18, 0x00	; 0
     e54:	30 e0       	ldi	r19, 0x00	; 0
     e56:	40 e8       	ldi	r20, 0x80	; 128
     e58:	5a e3       	ldi	r21, 0x3A	; 58
     e5a:	0e 94 f2 12 	call	0x25e4	; 0x25e4 <__mulsf3>
     e5e:	20 e0       	ldi	r18, 0x00	; 0
     e60:	30 e0       	ldi	r19, 0x00	; 0
     e62:	48 ec       	ldi	r20, 0xC8	; 200
     e64:	52 e4       	ldi	r21, 0x42	; 66
     e66:	0e 94 f2 12 	call	0x25e4	; 0x25e4 <__mulsf3>
     e6a:	0e 94 01 12 	call	0x2402	; 0x2402 <__fixunssfsi>
     e6e:	f8 01       	movw	r30, r16
     e70:	60 83       	st	Z, r22
     e72:	80 e0       	ldi	r24, 0x00	; 0
     e74:	0f 90       	pop	r0
     e76:	0f 90       	pop	r0
     e78:	df 91       	pop	r29
     e7a:	cf 91       	pop	r28
     e7c:	1f 91       	pop	r17
     e7e:	0f 91       	pop	r16
     e80:	ff 90       	pop	r15
     e82:	ef 90       	pop	r14
     e84:	08 95       	ret
     e86:	81 30       	cpi	r24, 0x01	; 1
     e88:	a1 f7       	brne	.-24     	; 0xe72 <LDR_u8GetLightPres+0x58>
     e8a:	69 81       	ldd	r22, Y+1	; 0x01
     e8c:	7a 81       	ldd	r23, Y+2	; 0x02
     e8e:	90 e0       	ldi	r25, 0x00	; 0
     e90:	80 e0       	ldi	r24, 0x00	; 0
     e92:	0e 94 30 12 	call	0x2460	; 0x2460 <__floatunsisf>
     e96:	20 e0       	ldi	r18, 0x00	; 0
     e98:	30 e0       	ldi	r19, 0x00	; 0
     e9a:	40 e8       	ldi	r20, 0x80	; 128
     e9c:	5b e3       	ldi	r21, 0x3B	; 59
     e9e:	dd cf       	rjmp	.-70     	; 0xe5a <LDR_u8GetLightPres+0x40>

00000ea0 <LM35_u8GetTemp>:
     ea0:	af 92       	push	r10
     ea2:	bf 92       	push	r11
     ea4:	cf 92       	push	r12
     ea6:	df 92       	push	r13
     ea8:	ef 92       	push	r14
     eaa:	ff 92       	push	r15
     eac:	0f 93       	push	r16
     eae:	1f 93       	push	r17
     eb0:	cf 93       	push	r28
     eb2:	df 93       	push	r29
     eb4:	00 d0       	rcall	.+0      	; 0xeb6 <LM35_u8GetTemp+0x16>
     eb6:	cd b7       	in	r28, 0x3d	; 61
     eb8:	de b7       	in	r29, 0x3e	; 62
     eba:	6c 01       	movw	r12, r24
     ebc:	8b 01       	movw	r16, r22
     ebe:	fc 01       	movw	r30, r24
     ec0:	21 81       	ldd	r18, Z+1	; 0x01
     ec2:	88 ee       	ldi	r24, 0xE8	; 232
     ec4:	93 e0       	ldi	r25, 0x03	; 3
     ec6:	28 9f       	mul	r18, r24
     ec8:	50 01       	movw	r10, r0
     eca:	29 9f       	mul	r18, r25
     ecc:	b0 0c       	add	r11, r0
     ece:	11 24       	eor	r1, r1
     ed0:	be 01       	movw	r22, r28
     ed2:	6f 5f       	subi	r22, 0xFF	; 255
     ed4:	7f 4f       	sbci	r23, 0xFF	; 255
     ed6:	80 81       	ld	r24, Z
     ed8:	0e 94 97 00 	call	0x12e	; 0x12e <ADC_u8GetResultSync>
     edc:	f6 01       	movw	r30, r12
     ede:	82 81       	ldd	r24, Z+2	; 0x02
     ee0:	81 11       	cpse	r24, r1
     ee2:	22 c0       	rjmp	.+68     	; 0xf28 <LM35_u8GetTemp+0x88>
     ee4:	29 81       	ldd	r18, Y+1	; 0x01
     ee6:	3a 81       	ldd	r19, Y+2	; 0x02
     ee8:	d5 01       	movw	r26, r10
     eea:	0e 94 1f 11 	call	0x223e	; 0x223e <__usmulhisi3>
     eee:	3a e0       	ldi	r19, 0x0A	; 10
     ef0:	96 95       	lsr	r25
     ef2:	87 95       	ror	r24
     ef4:	77 95       	ror	r23
     ef6:	67 95       	ror	r22
     ef8:	3a 95       	dec	r19
     efa:	d1 f7       	brne	.-12     	; 0xef0 <LM35_u8GetTemp+0x50>
     efc:	7b 01       	movw	r14, r22
     efe:	c7 01       	movw	r24, r14
     f00:	6a e0       	ldi	r22, 0x0A	; 10
     f02:	70 e0       	ldi	r23, 0x00	; 0
     f04:	0e 94 ca 10 	call	0x2194	; 0x2194 <__udivmodhi4>
     f08:	f8 01       	movw	r30, r16
     f0a:	60 83       	st	Z, r22
     f0c:	80 e0       	ldi	r24, 0x00	; 0
     f0e:	0f 90       	pop	r0
     f10:	0f 90       	pop	r0
     f12:	df 91       	pop	r29
     f14:	cf 91       	pop	r28
     f16:	1f 91       	pop	r17
     f18:	0f 91       	pop	r16
     f1a:	ff 90       	pop	r15
     f1c:	ef 90       	pop	r14
     f1e:	df 90       	pop	r13
     f20:	cf 90       	pop	r12
     f22:	bf 90       	pop	r11
     f24:	af 90       	pop	r10
     f26:	08 95       	ret
     f28:	81 30       	cpi	r24, 0x01	; 1
     f2a:	49 f7       	brne	.-46     	; 0xefe <LM35_u8GetTemp+0x5e>
     f2c:	29 81       	ldd	r18, Y+1	; 0x01
     f2e:	3a 81       	ldd	r19, Y+2	; 0x02
     f30:	d5 01       	movw	r26, r10
     f32:	0e 94 1f 11 	call	0x223e	; 0x223e <__usmulhisi3>
     f36:	67 2f       	mov	r22, r23
     f38:	78 2f       	mov	r23, r24
     f3a:	89 2f       	mov	r24, r25
     f3c:	99 27       	eor	r25, r25
     f3e:	de cf       	rjmp	.-68     	; 0xefc <LM35_u8GetTemp+0x5c>

00000f40 <LM35_u8GetAnalogSignal>:
     f40:	cf 92       	push	r12
     f42:	df 92       	push	r13
     f44:	ef 92       	push	r14
     f46:	ff 92       	push	r15
     f48:	0f 93       	push	r16
     f4a:	1f 93       	push	r17
     f4c:	cf 93       	push	r28
     f4e:	df 93       	push	r29
     f50:	00 d0       	rcall	.+0      	; 0xf52 <LM35_u8GetAnalogSignal+0x12>
     f52:	cd b7       	in	r28, 0x3d	; 61
     f54:	de b7       	in	r29, 0x3e	; 62
     f56:	7c 01       	movw	r14, r24
     f58:	8b 01       	movw	r16, r22
     f5a:	fc 01       	movw	r30, r24
     f5c:	21 81       	ldd	r18, Z+1	; 0x01
     f5e:	88 ee       	ldi	r24, 0xE8	; 232
     f60:	93 e0       	ldi	r25, 0x03	; 3
     f62:	28 9f       	mul	r18, r24
     f64:	60 01       	movw	r12, r0
     f66:	29 9f       	mul	r18, r25
     f68:	d0 0c       	add	r13, r0
     f6a:	11 24       	eor	r1, r1
     f6c:	be 01       	movw	r22, r28
     f6e:	6f 5f       	subi	r22, 0xFF	; 255
     f70:	7f 4f       	sbci	r23, 0xFF	; 255
     f72:	80 81       	ld	r24, Z
     f74:	0e 94 97 00 	call	0x12e	; 0x12e <ADC_u8GetResultSync>
     f78:	f7 01       	movw	r30, r14
     f7a:	82 81       	ldd	r24, Z+2	; 0x02
     f7c:	81 11       	cpse	r24, r1
     f7e:	1b c0       	rjmp	.+54     	; 0xfb6 <LM35_u8GetAnalogSignal+0x76>
     f80:	29 81       	ldd	r18, Y+1	; 0x01
     f82:	3a 81       	ldd	r19, Y+2	; 0x02
     f84:	d6 01       	movw	r26, r12
     f86:	0e 94 1f 11 	call	0x223e	; 0x223e <__usmulhisi3>
     f8a:	3a e0       	ldi	r19, 0x0A	; 10
     f8c:	96 95       	lsr	r25
     f8e:	87 95       	ror	r24
     f90:	77 95       	ror	r23
     f92:	67 95       	ror	r22
     f94:	3a 95       	dec	r19
     f96:	d1 f7       	brne	.-12     	; 0xf8c <LM35_u8GetAnalogSignal+0x4c>
     f98:	f8 01       	movw	r30, r16
     f9a:	71 83       	std	Z+1, r23	; 0x01
     f9c:	60 83       	st	Z, r22
     f9e:	80 e0       	ldi	r24, 0x00	; 0
     fa0:	0f 90       	pop	r0
     fa2:	0f 90       	pop	r0
     fa4:	df 91       	pop	r29
     fa6:	cf 91       	pop	r28
     fa8:	1f 91       	pop	r17
     faa:	0f 91       	pop	r16
     fac:	ff 90       	pop	r15
     fae:	ef 90       	pop	r14
     fb0:	df 90       	pop	r13
     fb2:	cf 90       	pop	r12
     fb4:	08 95       	ret
     fb6:	81 30       	cpi	r24, 0x01	; 1
     fb8:	91 f7       	brne	.-28     	; 0xf9e <LM35_u8GetAnalogSignal+0x5e>
     fba:	29 81       	ldd	r18, Y+1	; 0x01
     fbc:	3a 81       	ldd	r19, Y+2	; 0x02
     fbe:	d6 01       	movw	r26, r12
     fc0:	0e 94 1f 11 	call	0x223e	; 0x223e <__usmulhisi3>
     fc4:	67 2f       	mov	r22, r23
     fc6:	78 2f       	mov	r23, r24
     fc8:	89 2f       	mov	r24, r25
     fca:	99 27       	eor	r25, r25
     fcc:	e5 cf       	rjmp	.-54     	; 0xf98 <LM35_u8GetAnalogSignal+0x58>

00000fce <UserName_Set>:
     fce:	0f 93       	push	r16
     fd0:	1f 93       	push	r17
     fd2:	cf 93       	push	r28
     fd4:	83 e7       	ldi	r24, 0x73	; 115
     fd6:	90 e0       	ldi	r25, 0x00	; 0
     fd8:	0e 94 eb 0d 	call	0x1bd6	; 0x1bd6 <USART_u8SendStringSynch>
     fdc:	8d e0       	ldi	r24, 0x0D	; 13
     fde:	0e 94 9c 0d 	call	0x1b38	; 0x1b38 <USART_u8SendData>
     fe2:	80 e8       	ldi	r24, 0x80	; 128
     fe4:	90 e0       	ldi	r25, 0x00	; 0
     fe6:	0e 94 eb 0d 	call	0x1bd6	; 0x1bd6 <USART_u8SendStringSynch>
     fea:	82 e3       	ldi	r24, 0x32	; 50
     fec:	0e 94 9c 0d 	call	0x1b38	; 0x1b38 <USART_u8SendData>
     ff0:	80 e3       	ldi	r24, 0x30	; 48
     ff2:	0e 94 9c 0d 	call	0x1b38	; 0x1b38 <USART_u8SendData>
     ff6:	8d e0       	ldi	r24, 0x0D	; 13
     ff8:	0e 94 9c 0d 	call	0x1b38	; 0x1b38 <USART_u8SendData>
     ffc:	10 92 0d 02 	sts	0x020D, r1	; 0x80020d <UserName_Length>
    1000:	80 91 0d 02 	lds	r24, 0x020D	; 0x80020d <UserName_Length>
    1004:	88 23       	and	r24, r24
    1006:	b9 f0       	breq	.+46     	; 0x1036 <UserName_Set+0x68>
    1008:	80 e9       	ldi	r24, 0x90	; 144
    100a:	90 e0       	ldi	r25, 0x00	; 0
    100c:	0e 94 eb 0d 	call	0x1bd6	; 0x1bd6 <USART_u8SendStringSynch>
    1010:	87 e3       	ldi	r24, 0x37	; 55
    1012:	0e 94 9c 0d 	call	0x1b38	; 0x1b38 <USART_u8SendData>
    1016:	8c ea       	ldi	r24, 0xAC	; 172
    1018:	90 e0       	ldi	r25, 0x00	; 0
    101a:	0e 94 eb 0d 	call	0x1bd6	; 0x1bd6 <USART_u8SendStringSynch>
    101e:	8d e0       	ldi	r24, 0x0D	; 13
    1020:	0e 94 9c 0d 	call	0x1b38	; 0x1b38 <USART_u8SendData>
    1024:	82 eb       	ldi	r24, 0xB2	; 178
    1026:	90 e0       	ldi	r25, 0x00	; 0
    1028:	0e 94 eb 0d 	call	0x1bd6	; 0x1bd6 <USART_u8SendStringSynch>
    102c:	8d e0       	ldi	r24, 0x0D	; 13
    102e:	0e 94 9c 0d 	call	0x1b38	; 0x1b38 <USART_u8SendData>
    1032:	10 92 0d 02 	sts	0x020D, r1	; 0x80020d <UserName_Length>
    1036:	81 e4       	ldi	r24, 0x41	; 65
    1038:	92 e0       	ldi	r25, 0x02	; 2
    103a:	0e 94 c1 0d 	call	0x1b82	; 0x1b82 <USART_u8ReceiveData>
    103e:	80 93 68 00 	sts	0x0068, r24	; 0x800068 <Error_State>
    1042:	80 91 68 00 	lds	r24, 0x0068	; 0x800068 <Error_State>
    1046:	81 11       	cpse	r24, r1
    1048:	1e c0       	rjmp	.+60     	; 0x1086 <UserName_Set+0xb8>
    104a:	80 91 0d 02 	lds	r24, 0x020D	; 0x80020d <UserName_Length>
    104e:	81 11       	cpse	r24, r1
    1050:	1a c0       	rjmp	.+52     	; 0x1086 <UserName_Set+0xb8>
    1052:	80 91 41 02 	lds	r24, 0x0241	; 0x800241 <KPD_Press>
    1056:	8d 30       	cpi	r24, 0x0D	; 13
    1058:	71 f3       	breq	.-36     	; 0x1036 <UserName_Set+0x68>
    105a:	80 91 41 02 	lds	r24, 0x0241	; 0x800241 <KPD_Press>
    105e:	8f 30       	cpi	r24, 0x0F	; 15
    1060:	51 f3       	breq	.-44     	; 0x1036 <UserName_Set+0x68>
    1062:	80 91 41 02 	lds	r24, 0x0241	; 0x800241 <KPD_Press>
    1066:	88 30       	cpi	r24, 0x08	; 8
    1068:	31 f3       	breq	.-52     	; 0x1036 <UserName_Set+0x68>
    106a:	60 91 41 02 	lds	r22, 0x0241	; 0x800241 <KPD_Press>
    106e:	80 91 0d 02 	lds	r24, 0x020D	; 0x80020d <UserName_Length>
    1072:	90 e0       	ldi	r25, 0x00	; 0
    1074:	81 96       	adiw	r24, 0x21	; 33
    1076:	0e 94 a8 05 	call	0xb50	; 0xb50 <EEPROM_vWrite>
    107a:	80 91 0d 02 	lds	r24, 0x020D	; 0x80020d <UserName_Length>
    107e:	8f 5f       	subi	r24, 0xFF	; 255
    1080:	80 93 0d 02 	sts	0x020D, r24	; 0x80020d <UserName_Length>
    1084:	d8 cf       	rjmp	.-80     	; 0x1036 <UserName_Set+0x68>
    1086:	80 91 68 00 	lds	r24, 0x0068	; 0x800068 <Error_State>
    108a:	81 11       	cpse	r24, r1
    108c:	14 c0       	rjmp	.+40     	; 0x10b6 <UserName_Set+0xe8>
    108e:	80 91 0d 02 	lds	r24, 0x020D	; 0x80020d <UserName_Length>
    1092:	84 31       	cpi	r24, 0x14	; 20
    1094:	80 f4       	brcc	.+32     	; 0x10b6 <UserName_Set+0xe8>
    1096:	80 91 41 02 	lds	r24, 0x0241	; 0x800241 <KPD_Press>
    109a:	8d 30       	cpi	r24, 0x0D	; 13
    109c:	19 f1       	breq	.+70     	; 0x10e4 <UserName_Set+0x116>
    109e:	80 91 41 02 	lds	r24, 0x0241	; 0x800241 <KPD_Press>
    10a2:	8f 30       	cpi	r24, 0x0F	; 15
    10a4:	f9 f0       	breq	.+62     	; 0x10e4 <UserName_Set+0x116>
    10a6:	80 91 41 02 	lds	r24, 0x0241	; 0x800241 <KPD_Press>
    10aa:	88 30       	cpi	r24, 0x08	; 8
    10ac:	f1 f6       	brne	.-68     	; 0x106a <UserName_Set+0x9c>
    10ae:	80 91 0d 02 	lds	r24, 0x020D	; 0x80020d <UserName_Length>
    10b2:	81 50       	subi	r24, 0x01	; 1
    10b4:	e5 cf       	rjmp	.-54     	; 0x1080 <UserName_Set+0xb2>
    10b6:	80 91 68 00 	lds	r24, 0x0068	; 0x800068 <Error_State>
    10ba:	81 11       	cpse	r24, r1
    10bc:	bc cf       	rjmp	.-136    	; 0x1036 <UserName_Set+0x68>
    10be:	80 91 0d 02 	lds	r24, 0x020D	; 0x80020d <UserName_Length>
    10c2:	84 31       	cpi	r24, 0x14	; 20
    10c4:	08 f4       	brcc	.+2      	; 0x10c8 <UserName_Set+0xfa>
    10c6:	b7 cf       	rjmp	.-146    	; 0x1036 <UserName_Set+0x68>
    10c8:	80 91 41 02 	lds	r24, 0x0241	; 0x800241 <KPD_Press>
    10cc:	8d 30       	cpi	r24, 0x0D	; 13
    10ce:	51 f0       	breq	.+20     	; 0x10e4 <UserName_Set+0x116>
    10d0:	80 91 41 02 	lds	r24, 0x0241	; 0x800241 <KPD_Press>
    10d4:	8f 30       	cpi	r24, 0x0F	; 15
    10d6:	31 f0       	breq	.+12     	; 0x10e4 <UserName_Set+0x116>
    10d8:	80 91 41 02 	lds	r24, 0x0241	; 0x800241 <KPD_Press>
    10dc:	88 30       	cpi	r24, 0x08	; 8
    10de:	09 f0       	breq	.+2      	; 0x10e2 <UserName_Set+0x114>
    10e0:	aa cf       	rjmp	.-172    	; 0x1036 <UserName_Set+0x68>
    10e2:	e5 cf       	rjmp	.-54     	; 0x10ae <UserName_Set+0xe0>
    10e4:	80 91 0d 02 	lds	r24, 0x020D	; 0x80020d <UserName_Length>
    10e8:	88 30       	cpi	r24, 0x08	; 8
    10ea:	08 f4       	brcc	.+2      	; 0x10ee <UserName_Set+0x120>
    10ec:	89 cf       	rjmp	.-238    	; 0x1000 <UserName_Set+0x32>
    10ee:	60 e0       	ldi	r22, 0x00	; 0
    10f0:	80 e1       	ldi	r24, 0x10	; 16
    10f2:	90 e0       	ldi	r25, 0x00	; 0
    10f4:	0e 94 a8 05 	call	0xb50	; 0xb50 <EEPROM_vWrite>
    10f8:	60 91 0d 02 	lds	r22, 0x020D	; 0x80020d <UserName_Length>
    10fc:	83 e1       	ldi	r24, 0x13	; 19
    10fe:	90 e0       	ldi	r25, 0x00	; 0
    1100:	0e 94 a8 05 	call	0xb50	; 0xb50 <EEPROM_vWrite>
    1104:	c0 e0       	ldi	r28, 0x00	; 0
    1106:	80 91 0d 02 	lds	r24, 0x020D	; 0x80020d <UserName_Length>
    110a:	c8 17       	cp	r28, r24
    110c:	50 f0       	brcs	.+20     	; 0x1122 <UserName_Set+0x154>
    110e:	e0 91 0d 02 	lds	r30, 0x020D	; 0x80020d <UserName_Length>
    1112:	f0 e0       	ldi	r31, 0x00	; 0
    1114:	ee 5b       	subi	r30, 0xBE	; 190
    1116:	fd 4f       	sbci	r31, 0xFD	; 253
    1118:	10 82       	st	Z, r1
    111a:	cf 91       	pop	r28
    111c:	1f 91       	pop	r17
    111e:	0f 91       	pop	r16
    1120:	08 95       	ret
    1122:	0c 2f       	mov	r16, r28
    1124:	10 e0       	ldi	r17, 0x00	; 0
    1126:	c8 01       	movw	r24, r16
    1128:	81 96       	adiw	r24, 0x21	; 33
    112a:	0e 94 b0 05 	call	0xb60	; 0xb60 <EEPROM_vRead>
    112e:	f8 01       	movw	r30, r16
    1130:	ee 5b       	subi	r30, 0xBE	; 190
    1132:	fd 4f       	sbci	r31, 0xFD	; 253
    1134:	80 83       	st	Z, r24
    1136:	cf 5f       	subi	r28, 0xFF	; 255
    1138:	e6 cf       	rjmp	.-52     	; 0x1106 <UserName_Set+0x138>

0000113a <PassWord_Set>:
    113a:	83 ee       	ldi	r24, 0xE3	; 227
    113c:	90 e0       	ldi	r25, 0x00	; 0
    113e:	0e 94 eb 0d 	call	0x1bd6	; 0x1bd6 <USART_u8SendStringSynch>
    1142:	8d e0       	ldi	r24, 0x0D	; 13
    1144:	0e 94 9c 0d 	call	0x1b38	; 0x1b38 <USART_u8SendData>
    1148:	80 e8       	ldi	r24, 0x80	; 128
    114a:	90 e0       	ldi	r25, 0x00	; 0
    114c:	0e 94 eb 0d 	call	0x1bd6	; 0x1bd6 <USART_u8SendStringSynch>
    1150:	82 e3       	ldi	r24, 0x32	; 50
    1152:	0e 94 9c 0d 	call	0x1b38	; 0x1b38 <USART_u8SendData>
    1156:	80 e3       	ldi	r24, 0x30	; 48
    1158:	0e 94 9c 0d 	call	0x1b38	; 0x1b38 <USART_u8SendData>
    115c:	8d e0       	ldi	r24, 0x0D	; 13
    115e:	0e 94 9c 0d 	call	0x1b38	; 0x1b38 <USART_u8SendData>
    1162:	10 92 0c 02 	sts	0x020C, r1	; 0x80020c <PassWord_Length>
    1166:	80 91 0c 02 	lds	r24, 0x020C	; 0x80020c <PassWord_Length>
    116a:	88 23       	and	r24, r24
    116c:	21 f1       	breq	.+72     	; 0x11b6 <PassWord_Set+0x7c>
    116e:	84 ec       	ldi	r24, 0xC4	; 196
    1170:	90 e0       	ldi	r25, 0x00	; 0
    1172:	0e 94 eb 0d 	call	0x1bd6	; 0x1bd6 <USART_u8SendStringSynch>
    1176:	84 e3       	ldi	r24, 0x34	; 52
    1178:	0e 94 9c 0d 	call	0x1b38	; 0x1b38 <USART_u8SendData>
    117c:	8c ea       	ldi	r24, 0xAC	; 172
    117e:	90 e0       	ldi	r25, 0x00	; 0
    1180:	0e 94 eb 0d 	call	0x1bd6	; 0x1bd6 <USART_u8SendStringSynch>
    1184:	8d e0       	ldi	r24, 0x0D	; 13
    1186:	0e 94 9c 0d 	call	0x1b38	; 0x1b38 <USART_u8SendData>
    118a:	80 ee       	ldi	r24, 0xE0	; 224
    118c:	90 e0       	ldi	r25, 0x00	; 0
    118e:	0e 94 eb 0d 	call	0x1bd6	; 0x1bd6 <USART_u8SendStringSynch>
    1192:	8d e0       	ldi	r24, 0x0D	; 13
    1194:	0e 94 9c 0d 	call	0x1b38	; 0x1b38 <USART_u8SendData>
    1198:	80 e8       	ldi	r24, 0x80	; 128
    119a:	90 e0       	ldi	r25, 0x00	; 0
    119c:	0e 94 eb 0d 	call	0x1bd6	; 0x1bd6 <USART_u8SendStringSynch>
    11a0:	82 e3       	ldi	r24, 0x32	; 50
    11a2:	0e 94 9c 0d 	call	0x1b38	; 0x1b38 <USART_u8SendData>
    11a6:	80 e3       	ldi	r24, 0x30	; 48
    11a8:	0e 94 9c 0d 	call	0x1b38	; 0x1b38 <USART_u8SendData>
    11ac:	8d e0       	ldi	r24, 0x0D	; 13
    11ae:	0e 94 9c 0d 	call	0x1b38	; 0x1b38 <USART_u8SendData>
    11b2:	10 92 0c 02 	sts	0x020C, r1	; 0x80020c <PassWord_Length>
    11b6:	81 e4       	ldi	r24, 0x41	; 65
    11b8:	92 e0       	ldi	r25, 0x02	; 2
    11ba:	0e 94 c1 0d 	call	0x1b82	; 0x1b82 <USART_u8ReceiveData>
    11be:	80 93 68 00 	sts	0x0068, r24	; 0x800068 <Error_State>
    11c2:	80 91 68 00 	lds	r24, 0x0068	; 0x800068 <Error_State>
    11c6:	81 11       	cpse	r24, r1
    11c8:	1f c0       	rjmp	.+62     	; 0x1208 <PassWord_Set+0xce>
    11ca:	80 91 0c 02 	lds	r24, 0x020C	; 0x80020c <PassWord_Length>
    11ce:	81 11       	cpse	r24, r1
    11d0:	1b c0       	rjmp	.+54     	; 0x1208 <PassWord_Set+0xce>
    11d2:	80 91 41 02 	lds	r24, 0x0241	; 0x800241 <KPD_Press>
    11d6:	8d 30       	cpi	r24, 0x0D	; 13
    11d8:	71 f3       	breq	.-36     	; 0x11b6 <PassWord_Set+0x7c>
    11da:	80 91 41 02 	lds	r24, 0x0241	; 0x800241 <KPD_Press>
    11de:	8f 30       	cpi	r24, 0x0F	; 15
    11e0:	51 f3       	breq	.-44     	; 0x11b6 <PassWord_Set+0x7c>
    11e2:	80 91 41 02 	lds	r24, 0x0241	; 0x800241 <KPD_Press>
    11e6:	88 30       	cpi	r24, 0x08	; 8
    11e8:	31 f3       	breq	.-52     	; 0x11b6 <PassWord_Set+0x7c>
    11ea:	60 91 41 02 	lds	r22, 0x0241	; 0x800241 <KPD_Press>
    11ee:	80 91 0c 02 	lds	r24, 0x020C	; 0x80020c <PassWord_Length>
    11f2:	90 e0       	ldi	r25, 0x00	; 0
    11f4:	8f 5b       	subi	r24, 0xBF	; 191
    11f6:	9f 4f       	sbci	r25, 0xFF	; 255
    11f8:	0e 94 a8 05 	call	0xb50	; 0xb50 <EEPROM_vWrite>
    11fc:	80 91 0c 02 	lds	r24, 0x020C	; 0x80020c <PassWord_Length>
    1200:	8f 5f       	subi	r24, 0xFF	; 255
    1202:	80 93 0c 02 	sts	0x020C, r24	; 0x80020c <PassWord_Length>
    1206:	d7 cf       	rjmp	.-82     	; 0x11b6 <PassWord_Set+0x7c>
    1208:	80 91 68 00 	lds	r24, 0x0068	; 0x800068 <Error_State>
    120c:	81 11       	cpse	r24, r1
    120e:	14 c0       	rjmp	.+40     	; 0x1238 <PassWord_Set+0xfe>
    1210:	80 91 0c 02 	lds	r24, 0x020C	; 0x80020c <PassWord_Length>
    1214:	84 31       	cpi	r24, 0x14	; 20
    1216:	80 f4       	brcc	.+32     	; 0x1238 <PassWord_Set+0xfe>
    1218:	80 91 41 02 	lds	r24, 0x0241	; 0x800241 <KPD_Press>
    121c:	8d 30       	cpi	r24, 0x0D	; 13
    121e:	19 f1       	breq	.+70     	; 0x1266 <PassWord_Set+0x12c>
    1220:	80 91 41 02 	lds	r24, 0x0241	; 0x800241 <KPD_Press>
    1224:	8f 30       	cpi	r24, 0x0F	; 15
    1226:	f9 f0       	breq	.+62     	; 0x1266 <PassWord_Set+0x12c>
    1228:	80 91 41 02 	lds	r24, 0x0241	; 0x800241 <KPD_Press>
    122c:	88 30       	cpi	r24, 0x08	; 8
    122e:	e9 f6       	brne	.-70     	; 0x11ea <PassWord_Set+0xb0>
    1230:	80 91 0c 02 	lds	r24, 0x020C	; 0x80020c <PassWord_Length>
    1234:	81 50       	subi	r24, 0x01	; 1
    1236:	e5 cf       	rjmp	.-54     	; 0x1202 <PassWord_Set+0xc8>
    1238:	80 91 68 00 	lds	r24, 0x0068	; 0x800068 <Error_State>
    123c:	81 11       	cpse	r24, r1
    123e:	bb cf       	rjmp	.-138    	; 0x11b6 <PassWord_Set+0x7c>
    1240:	80 91 0c 02 	lds	r24, 0x020C	; 0x80020c <PassWord_Length>
    1244:	84 31       	cpi	r24, 0x14	; 20
    1246:	08 f4       	brcc	.+2      	; 0x124a <PassWord_Set+0x110>
    1248:	b6 cf       	rjmp	.-148    	; 0x11b6 <PassWord_Set+0x7c>
    124a:	80 91 41 02 	lds	r24, 0x0241	; 0x800241 <KPD_Press>
    124e:	8d 30       	cpi	r24, 0x0D	; 13
    1250:	51 f0       	breq	.+20     	; 0x1266 <PassWord_Set+0x12c>
    1252:	80 91 41 02 	lds	r24, 0x0241	; 0x800241 <KPD_Press>
    1256:	8f 30       	cpi	r24, 0x0F	; 15
    1258:	31 f0       	breq	.+12     	; 0x1266 <PassWord_Set+0x12c>
    125a:	80 91 41 02 	lds	r24, 0x0241	; 0x800241 <KPD_Press>
    125e:	88 30       	cpi	r24, 0x08	; 8
    1260:	09 f0       	breq	.+2      	; 0x1264 <PassWord_Set+0x12a>
    1262:	a9 cf       	rjmp	.-174    	; 0x11b6 <PassWord_Set+0x7c>
    1264:	e5 cf       	rjmp	.-54     	; 0x1230 <PassWord_Set+0xf6>
    1266:	80 91 0c 02 	lds	r24, 0x020C	; 0x80020c <PassWord_Length>
    126a:	85 30       	cpi	r24, 0x05	; 5
    126c:	08 f4       	brcc	.+2      	; 0x1270 <PassWord_Set+0x136>
    126e:	7b cf       	rjmp	.-266    	; 0x1166 <PassWord_Set+0x2c>
    1270:	60 e0       	ldi	r22, 0x00	; 0
    1272:	81 e1       	ldi	r24, 0x11	; 17
    1274:	90 e0       	ldi	r25, 0x00	; 0
    1276:	0e 94 a8 05 	call	0xb50	; 0xb50 <EEPROM_vWrite>
    127a:	60 91 0c 02 	lds	r22, 0x020C	; 0x80020c <PassWord_Length>
    127e:	84 e1       	ldi	r24, 0x14	; 20
    1280:	90 e0       	ldi	r25, 0x00	; 0
    1282:	0c 94 a8 05 	jmp	0xb50	; 0xb50 <EEPROM_vWrite>

00001286 <UserName_Check>:
    1286:	cf 93       	push	r28
    1288:	df 93       	push	r29
    128a:	80 ef       	ldi	r24, 0xF0	; 240
    128c:	90 e0       	ldi	r25, 0x00	; 0
    128e:	0e 94 eb 0d 	call	0x1bd6	; 0x1bd6 <USART_u8SendStringSynch>
    1292:	8d e0       	ldi	r24, 0x0D	; 13
    1294:	0e 94 9c 0d 	call	0x1b38	; 0x1b38 <USART_u8SendData>
    1298:	81 e0       	ldi	r24, 0x01	; 1
    129a:	80 93 6a 00 	sts	0x006A, r24	; 0x80006a <UserName_Check_Flag>
    129e:	c0 e0       	ldi	r28, 0x00	; 0
    12a0:	81 e4       	ldi	r24, 0x41	; 65
    12a2:	92 e0       	ldi	r25, 0x02	; 2
    12a4:	0e 94 c1 0d 	call	0x1b82	; 0x1b82 <USART_u8ReceiveData>
    12a8:	80 93 68 00 	sts	0x0068, r24	; 0x800068 <Error_State>
    12ac:	80 91 68 00 	lds	r24, 0x0068	; 0x800068 <Error_State>
    12b0:	81 11       	cpse	r24, r1
    12b2:	14 c0       	rjmp	.+40     	; 0x12dc <UserName_Check+0x56>
    12b4:	c1 11       	cpse	r28, r1
    12b6:	12 c0       	rjmp	.+36     	; 0x12dc <UserName_Check+0x56>
    12b8:	80 91 41 02 	lds	r24, 0x0241	; 0x800241 <KPD_Press>
    12bc:	8d 30       	cpi	r24, 0x0D	; 13
    12be:	81 f3       	breq	.-32     	; 0x12a0 <UserName_Check+0x1a>
    12c0:	80 91 41 02 	lds	r24, 0x0241	; 0x800241 <KPD_Press>
    12c4:	8f 30       	cpi	r24, 0x0F	; 15
    12c6:	61 f3       	breq	.-40     	; 0x12a0 <UserName_Check+0x1a>
    12c8:	80 91 41 02 	lds	r24, 0x0241	; 0x800241 <KPD_Press>
    12cc:	88 30       	cpi	r24, 0x08	; 8
    12ce:	41 f3       	breq	.-48     	; 0x12a0 <UserName_Check+0x1a>
    12d0:	80 91 41 02 	lds	r24, 0x0241	; 0x800241 <KPD_Press>
    12d4:	80 93 2c 02 	sts	0x022C, r24	; 0x80022c <Check>
    12d8:	c1 e0       	ldi	r28, 0x01	; 1
    12da:	e2 cf       	rjmp	.-60     	; 0x12a0 <UserName_Check+0x1a>
    12dc:	80 91 68 00 	lds	r24, 0x0068	; 0x800068 <Error_State>
    12e0:	81 11       	cpse	r24, r1
    12e2:	19 c0       	rjmp	.+50     	; 0x1316 <UserName_Check+0x90>
    12e4:	c4 31       	cpi	r28, 0x14	; 20
    12e6:	b8 f4       	brcc	.+46     	; 0x1316 <UserName_Check+0x90>
    12e8:	80 91 41 02 	lds	r24, 0x0241	; 0x800241 <KPD_Press>
    12ec:	8d 30       	cpi	r24, 0x0D	; 13
    12ee:	41 f1       	breq	.+80     	; 0x1340 <UserName_Check+0xba>
    12f0:	80 91 41 02 	lds	r24, 0x0241	; 0x800241 <KPD_Press>
    12f4:	8f 30       	cpi	r24, 0x0F	; 15
    12f6:	21 f1       	breq	.+72     	; 0x1340 <UserName_Check+0xba>
    12f8:	80 91 41 02 	lds	r24, 0x0241	; 0x800241 <KPD_Press>
    12fc:	88 30       	cpi	r24, 0x08	; 8
    12fe:	11 f4       	brne	.+4      	; 0x1304 <UserName_Check+0x7e>
    1300:	c1 50       	subi	r28, 0x01	; 1
    1302:	ce cf       	rjmp	.-100    	; 0x12a0 <UserName_Check+0x1a>
    1304:	ec 2f       	mov	r30, r28
    1306:	f0 e0       	ldi	r31, 0x00	; 0
    1308:	80 91 41 02 	lds	r24, 0x0241	; 0x800241 <KPD_Press>
    130c:	e4 5d       	subi	r30, 0xD4	; 212
    130e:	fd 4f       	sbci	r31, 0xFD	; 253
    1310:	80 83       	st	Z, r24
    1312:	cf 5f       	subi	r28, 0xFF	; 255
    1314:	c5 cf       	rjmp	.-118    	; 0x12a0 <UserName_Check+0x1a>
    1316:	80 91 68 00 	lds	r24, 0x0068	; 0x800068 <Error_State>
    131a:	81 11       	cpse	r24, r1
    131c:	c1 cf       	rjmp	.-126    	; 0x12a0 <UserName_Check+0x1a>
    131e:	c4 31       	cpi	r28, 0x14	; 20
    1320:	08 f4       	brcc	.+2      	; 0x1324 <UserName_Check+0x9e>
    1322:	be cf       	rjmp	.-132    	; 0x12a0 <UserName_Check+0x1a>
    1324:	80 91 41 02 	lds	r24, 0x0241	; 0x800241 <KPD_Press>
    1328:	8d 30       	cpi	r24, 0x0D	; 13
    132a:	51 f0       	breq	.+20     	; 0x1340 <UserName_Check+0xba>
    132c:	80 91 41 02 	lds	r24, 0x0241	; 0x800241 <KPD_Press>
    1330:	8f 30       	cpi	r24, 0x0F	; 15
    1332:	31 f0       	breq	.+12     	; 0x1340 <UserName_Check+0xba>
    1334:	80 91 41 02 	lds	r24, 0x0241	; 0x800241 <KPD_Press>
    1338:	88 30       	cpi	r24, 0x08	; 8
    133a:	09 f0       	breq	.+2      	; 0x133e <UserName_Check+0xb8>
    133c:	b1 cf       	rjmp	.-158    	; 0x12a0 <UserName_Check+0x1a>
    133e:	e0 cf       	rjmp	.-64     	; 0x1300 <UserName_Check+0x7a>
    1340:	80 91 0d 02 	lds	r24, 0x020D	; 0x80020d <UserName_Length>
    1344:	8c 13       	cpse	r24, r28
    1346:	19 c0       	rjmp	.+50     	; 0x137a <UserName_Check+0xf4>
    1348:	c0 e0       	ldi	r28, 0x00	; 0
    134a:	10 c0       	rjmp	.+32     	; 0x136c <UserName_Check+0xe6>
    134c:	8c 2f       	mov	r24, r28
    134e:	90 e0       	ldi	r25, 0x00	; 0
    1350:	fc 01       	movw	r30, r24
    1352:	e4 5d       	subi	r30, 0xD4	; 212
    1354:	fd 4f       	sbci	r31, 0xFD	; 253
    1356:	20 81       	ld	r18, Z
    1358:	22 23       	and	r18, r18
    135a:	61 f0       	breq	.+24     	; 0x1374 <UserName_Check+0xee>
    135c:	d0 81       	ld	r29, Z
    135e:	81 96       	adiw	r24, 0x21	; 33
    1360:	0e 94 b0 05 	call	0xb60	; 0xb60 <EEPROM_vRead>
    1364:	d8 13       	cpse	r29, r24
    1366:	10 92 6a 00 	sts	0x006A, r1	; 0x80006a <UserName_Check_Flag>
    136a:	cf 5f       	subi	r28, 0xFF	; 255
    136c:	80 91 0c 02 	lds	r24, 0x020C	; 0x80020c <PassWord_Length>
    1370:	8c 17       	cp	r24, r28
    1372:	60 f7       	brcc	.-40     	; 0x134c <UserName_Check+0xc6>
    1374:	df 91       	pop	r29
    1376:	cf 91       	pop	r28
    1378:	08 95       	ret
    137a:	80 91 0d 02 	lds	r24, 0x020D	; 0x80020d <UserName_Length>
    137e:	8c 17       	cp	r24, r28
    1380:	c9 f3       	breq	.-14     	; 0x1374 <UserName_Check+0xee>
    1382:	10 92 6a 00 	sts	0x006A, r1	; 0x80006a <UserName_Check_Flag>
    1386:	f6 cf       	rjmp	.-20     	; 0x1374 <UserName_Check+0xee>

00001388 <PassWord_Check>:
    1388:	cf 93       	push	r28
    138a:	df 93       	push	r29
    138c:	8f ef       	ldi	r24, 0xFF	; 255
    138e:	90 e0       	ldi	r25, 0x00	; 0
    1390:	0e 94 eb 0d 	call	0x1bd6	; 0x1bd6 <USART_u8SendStringSynch>
    1394:	8d e0       	ldi	r24, 0x0D	; 13
    1396:	0e 94 9c 0d 	call	0x1b38	; 0x1b38 <USART_u8SendData>
    139a:	81 e0       	ldi	r24, 0x01	; 1
    139c:	80 93 69 00 	sts	0x0069, r24	; 0x800069 <PassWord_Check_Flag>
    13a0:	c0 e0       	ldi	r28, 0x00	; 0
    13a2:	81 e4       	ldi	r24, 0x41	; 65
    13a4:	92 e0       	ldi	r25, 0x02	; 2
    13a6:	0e 94 c1 0d 	call	0x1b82	; 0x1b82 <USART_u8ReceiveData>
    13aa:	80 93 68 00 	sts	0x0068, r24	; 0x800068 <Error_State>
    13ae:	80 91 68 00 	lds	r24, 0x0068	; 0x800068 <Error_State>
    13b2:	81 11       	cpse	r24, r1
    13b4:	14 c0       	rjmp	.+40     	; 0x13de <PassWord_Check+0x56>
    13b6:	c1 11       	cpse	r28, r1
    13b8:	12 c0       	rjmp	.+36     	; 0x13de <PassWord_Check+0x56>
    13ba:	80 91 41 02 	lds	r24, 0x0241	; 0x800241 <KPD_Press>
    13be:	8d 30       	cpi	r24, 0x0D	; 13
    13c0:	81 f3       	breq	.-32     	; 0x13a2 <PassWord_Check+0x1a>
    13c2:	80 91 41 02 	lds	r24, 0x0241	; 0x800241 <KPD_Press>
    13c6:	8f 30       	cpi	r24, 0x0F	; 15
    13c8:	61 f3       	breq	.-40     	; 0x13a2 <PassWord_Check+0x1a>
    13ca:	80 91 41 02 	lds	r24, 0x0241	; 0x800241 <KPD_Press>
    13ce:	88 30       	cpi	r24, 0x08	; 8
    13d0:	41 f3       	breq	.-48     	; 0x13a2 <PassWord_Check+0x1a>
    13d2:	80 91 41 02 	lds	r24, 0x0241	; 0x800241 <KPD_Press>
    13d6:	80 93 2c 02 	sts	0x022C, r24	; 0x80022c <Check>
    13da:	c1 e0       	ldi	r28, 0x01	; 1
    13dc:	e2 cf       	rjmp	.-60     	; 0x13a2 <PassWord_Check+0x1a>
    13de:	80 91 68 00 	lds	r24, 0x0068	; 0x800068 <Error_State>
    13e2:	81 11       	cpse	r24, r1
    13e4:	19 c0       	rjmp	.+50     	; 0x1418 <PassWord_Check+0x90>
    13e6:	c4 31       	cpi	r28, 0x14	; 20
    13e8:	b8 f4       	brcc	.+46     	; 0x1418 <PassWord_Check+0x90>
    13ea:	80 91 41 02 	lds	r24, 0x0241	; 0x800241 <KPD_Press>
    13ee:	8d 30       	cpi	r24, 0x0D	; 13
    13f0:	41 f1       	breq	.+80     	; 0x1442 <PassWord_Check+0xba>
    13f2:	80 91 41 02 	lds	r24, 0x0241	; 0x800241 <KPD_Press>
    13f6:	8f 30       	cpi	r24, 0x0F	; 15
    13f8:	21 f1       	breq	.+72     	; 0x1442 <PassWord_Check+0xba>
    13fa:	80 91 41 02 	lds	r24, 0x0241	; 0x800241 <KPD_Press>
    13fe:	88 30       	cpi	r24, 0x08	; 8
    1400:	11 f4       	brne	.+4      	; 0x1406 <PassWord_Check+0x7e>
    1402:	c1 50       	subi	r28, 0x01	; 1
    1404:	ce cf       	rjmp	.-100    	; 0x13a2 <PassWord_Check+0x1a>
    1406:	ec 2f       	mov	r30, r28
    1408:	f0 e0       	ldi	r31, 0x00	; 0
    140a:	80 91 41 02 	lds	r24, 0x0241	; 0x800241 <KPD_Press>
    140e:	e4 5d       	subi	r30, 0xD4	; 212
    1410:	fd 4f       	sbci	r31, 0xFD	; 253
    1412:	80 83       	st	Z, r24
    1414:	cf 5f       	subi	r28, 0xFF	; 255
    1416:	c5 cf       	rjmp	.-118    	; 0x13a2 <PassWord_Check+0x1a>
    1418:	80 91 68 00 	lds	r24, 0x0068	; 0x800068 <Error_State>
    141c:	81 11       	cpse	r24, r1
    141e:	c1 cf       	rjmp	.-126    	; 0x13a2 <PassWord_Check+0x1a>
    1420:	c4 31       	cpi	r28, 0x14	; 20
    1422:	08 f4       	brcc	.+2      	; 0x1426 <PassWord_Check+0x9e>
    1424:	be cf       	rjmp	.-132    	; 0x13a2 <PassWord_Check+0x1a>
    1426:	80 91 41 02 	lds	r24, 0x0241	; 0x800241 <KPD_Press>
    142a:	8d 30       	cpi	r24, 0x0D	; 13
    142c:	51 f0       	breq	.+20     	; 0x1442 <PassWord_Check+0xba>
    142e:	80 91 41 02 	lds	r24, 0x0241	; 0x800241 <KPD_Press>
    1432:	8f 30       	cpi	r24, 0x0F	; 15
    1434:	31 f0       	breq	.+12     	; 0x1442 <PassWord_Check+0xba>
    1436:	80 91 41 02 	lds	r24, 0x0241	; 0x800241 <KPD_Press>
    143a:	88 30       	cpi	r24, 0x08	; 8
    143c:	09 f0       	breq	.+2      	; 0x1440 <PassWord_Check+0xb8>
    143e:	b1 cf       	rjmp	.-158    	; 0x13a2 <PassWord_Check+0x1a>
    1440:	e0 cf       	rjmp	.-64     	; 0x1402 <PassWord_Check+0x7a>
    1442:	80 91 0c 02 	lds	r24, 0x020C	; 0x80020c <PassWord_Length>
    1446:	8c 13       	cpse	r24, r28
    1448:	1a c0       	rjmp	.+52     	; 0x147e <PassWord_Check+0xf6>
    144a:	c0 e0       	ldi	r28, 0x00	; 0
    144c:	11 c0       	rjmp	.+34     	; 0x1470 <PassWord_Check+0xe8>
    144e:	8c 2f       	mov	r24, r28
    1450:	90 e0       	ldi	r25, 0x00	; 0
    1452:	fc 01       	movw	r30, r24
    1454:	e4 5d       	subi	r30, 0xD4	; 212
    1456:	fd 4f       	sbci	r31, 0xFD	; 253
    1458:	20 81       	ld	r18, Z
    145a:	22 23       	and	r18, r18
    145c:	69 f0       	breq	.+26     	; 0x1478 <PassWord_Check+0xf0>
    145e:	d0 81       	ld	r29, Z
    1460:	8f 5b       	subi	r24, 0xBF	; 191
    1462:	9f 4f       	sbci	r25, 0xFF	; 255
    1464:	0e 94 b0 05 	call	0xb60	; 0xb60 <EEPROM_vRead>
    1468:	d8 13       	cpse	r29, r24
    146a:	10 92 69 00 	sts	0x0069, r1	; 0x800069 <PassWord_Check_Flag>
    146e:	cf 5f       	subi	r28, 0xFF	; 255
    1470:	80 91 0c 02 	lds	r24, 0x020C	; 0x80020c <PassWord_Length>
    1474:	c8 17       	cp	r28, r24
    1476:	58 f3       	brcs	.-42     	; 0x144e <PassWord_Check+0xc6>
    1478:	df 91       	pop	r29
    147a:	cf 91       	pop	r28
    147c:	08 95       	ret
    147e:	80 91 0c 02 	lds	r24, 0x020C	; 0x80020c <PassWord_Length>
    1482:	8c 17       	cp	r24, r28
    1484:	c9 f3       	breq	.-14     	; 0x1478 <PassWord_Check+0xf0>
    1486:	10 92 69 00 	sts	0x0069, r1	; 0x800069 <PassWord_Check_Flag>
    148a:	f6 cf       	rjmp	.-20     	; 0x1478 <PassWord_Check+0xf0>

0000148c <Error_TimeOut>:
    148c:	cf 93       	push	r28
    148e:	8e e0       	ldi	r24, 0x0E	; 14
    1490:	91 e0       	ldi	r25, 0x01	; 1
    1492:	0e 94 eb 0d 	call	0x1bd6	; 0x1bd6 <USART_u8SendStringSynch>
    1496:	c5 e3       	ldi	r28, 0x35	; 53
    1498:	88 e0       	ldi	r24, 0x08	; 8
    149a:	0e 94 9c 0d 	call	0x1b38	; 0x1b38 <USART_u8SendData>
    149e:	8c 2f       	mov	r24, r28
    14a0:	0e 94 9c 0d 	call	0x1b38	; 0x1b38 <USART_u8SendData>
    14a4:	2f ef       	ldi	r18, 0xFF	; 255
    14a6:	89 e6       	ldi	r24, 0x69	; 105
    14a8:	98 e1       	ldi	r25, 0x18	; 24
    14aa:	21 50       	subi	r18, 0x01	; 1
    14ac:	80 40       	sbci	r24, 0x00	; 0
    14ae:	90 40       	sbci	r25, 0x00	; 0
    14b0:	e1 f7       	brne	.-8      	; 0x14aa <Error_TimeOut+0x1e>
    14b2:	00 c0       	rjmp	.+0      	; 0x14b4 <Error_TimeOut+0x28>
    14b4:	00 00       	nop
    14b6:	c1 50       	subi	r28, 0x01	; 1
    14b8:	c0 33       	cpi	r28, 0x30	; 48
    14ba:	71 f7       	brne	.-36     	; 0x1498 <Error_TimeOut+0xc>
    14bc:	8d e0       	ldi	r24, 0x0D	; 13
    14be:	0e 94 9c 0d 	call	0x1b38	; 0x1b38 <USART_u8SendData>
    14c2:	6f ef       	ldi	r22, 0xFF	; 255
    14c4:	82 e1       	ldi	r24, 0x12	; 18
    14c6:	90 e0       	ldi	r25, 0x00	; 0
    14c8:	0e 94 a8 05 	call	0xb50	; 0xb50 <EEPROM_vWrite>
    14cc:	83 e0       	ldi	r24, 0x03	; 3
    14ce:	80 93 6b 00 	sts	0x006B, r24	; 0x80006b <Tries>
    14d2:	cf 91       	pop	r28
    14d4:	08 95       	ret

000014d6 <EEPROM_vInit>:
    14d6:	0f 93       	push	r16
    14d8:	1f 93       	push	r17
    14da:	cf 93       	push	r28
    14dc:	83 e1       	ldi	r24, 0x13	; 19
    14de:	90 e0       	ldi	r25, 0x00	; 0
    14e0:	0e 94 b0 05 	call	0xb60	; 0xb60 <EEPROM_vRead>
    14e4:	80 93 0d 02 	sts	0x020D, r24	; 0x80020d <UserName_Length>
    14e8:	84 e1       	ldi	r24, 0x14	; 20
    14ea:	90 e0       	ldi	r25, 0x00	; 0
    14ec:	0e 94 b0 05 	call	0xb60	; 0xb60 <EEPROM_vRead>
    14f0:	80 93 0c 02 	sts	0x020C, r24	; 0x80020c <PassWord_Length>
    14f4:	82 e1       	ldi	r24, 0x12	; 18
    14f6:	90 e0       	ldi	r25, 0x00	; 0
    14f8:	0e 94 b0 05 	call	0xb60	; 0xb60 <EEPROM_vRead>
    14fc:	8f 3f       	cpi	r24, 0xFF	; 255
    14fe:	31 f0       	breq	.+12     	; 0x150c <EEPROM_vInit+0x36>
    1500:	82 e1       	ldi	r24, 0x12	; 18
    1502:	90 e0       	ldi	r25, 0x00	; 0
    1504:	0e 94 b0 05 	call	0xb60	; 0xb60 <EEPROM_vRead>
    1508:	80 93 6b 00 	sts	0x006B, r24	; 0x80006b <Tries>
    150c:	80 e1       	ldi	r24, 0x10	; 16
    150e:	90 e0       	ldi	r25, 0x00	; 0
    1510:	0e 94 b0 05 	call	0xb60	; 0xb60 <EEPROM_vRead>
    1514:	8f 3f       	cpi	r24, 0xFF	; 255
    1516:	49 f4       	brne	.+18     	; 0x152a <EEPROM_vInit+0x54>
    1518:	89 e1       	ldi	r24, 0x19	; 25
    151a:	91 e0       	ldi	r25, 0x01	; 1
    151c:	0e 94 eb 0d 	call	0x1bd6	; 0x1bd6 <USART_u8SendStringSynch>
    1520:	8d e0       	ldi	r24, 0x0D	; 13
    1522:	0e 94 9c 0d 	call	0x1b38	; 0x1b38 <USART_u8SendData>
    1526:	0e 94 e7 07 	call	0xfce	; 0xfce <UserName_Set>
    152a:	81 e1       	ldi	r24, 0x11	; 17
    152c:	90 e0       	ldi	r25, 0x00	; 0
    152e:	0e 94 b0 05 	call	0xb60	; 0xb60 <EEPROM_vRead>
    1532:	8f 3f       	cpi	r24, 0xFF	; 255
    1534:	49 f4       	brne	.+18     	; 0x1548 <EEPROM_vInit+0x72>
    1536:	0e 94 9d 08 	call	0x113a	; 0x113a <PassWord_Set>
    153a:	88 e2       	ldi	r24, 0x28	; 40
    153c:	91 e0       	ldi	r25, 0x01	; 1
    153e:	0e 94 eb 0d 	call	0x1bd6	; 0x1bd6 <USART_u8SendStringSynch>
    1542:	8d e0       	ldi	r24, 0x0D	; 13
    1544:	0e 94 9c 0d 	call	0x1b38	; 0x1b38 <USART_u8SendData>
    1548:	80 91 6b 00 	lds	r24, 0x006B	; 0x80006b <Tries>
    154c:	81 11       	cpse	r24, r1
    154e:	02 c0       	rjmp	.+4      	; 0x1554 <EEPROM_vInit+0x7e>
    1550:	0e 94 46 0a 	call	0x148c	; 0x148c <Error_TimeOut>
    1554:	c0 e0       	ldi	r28, 0x00	; 0
    1556:	80 91 0d 02 	lds	r24, 0x020D	; 0x80020d <UserName_Length>
    155a:	c8 17       	cp	r28, r24
    155c:	20 f0       	brcs	.+8      	; 0x1566 <EEPROM_vInit+0x90>
    155e:	cf 91       	pop	r28
    1560:	1f 91       	pop	r17
    1562:	0f 91       	pop	r16
    1564:	08 95       	ret
    1566:	0c 2f       	mov	r16, r28
    1568:	10 e0       	ldi	r17, 0x00	; 0
    156a:	c8 01       	movw	r24, r16
    156c:	81 96       	adiw	r24, 0x21	; 33
    156e:	0e 94 b0 05 	call	0xb60	; 0xb60 <EEPROM_vRead>
    1572:	f8 01       	movw	r30, r16
    1574:	ee 5b       	subi	r30, 0xBE	; 190
    1576:	fd 4f       	sbci	r31, 0xFD	; 253
    1578:	80 83       	st	Z, r24
    157a:	cf 5f       	subi	r28, 0xFF	; 255
    157c:	ec cf       	rjmp	.-40     	; 0x1556 <EEPROM_vInit+0x80>

0000157e <Sign_In>:
    157e:	0e 94 43 09 	call	0x1286	; 0x1286 <UserName_Check>
    1582:	0e 94 c4 09 	call	0x1388	; 0x1388 <PassWord_Check>
    1586:	80 91 6a 00 	lds	r24, 0x006A	; 0x80006a <UserName_Check_Flag>
    158a:	88 23       	and	r24, r24
    158c:	21 f0       	breq	.+8      	; 0x1596 <Sign_In+0x18>
    158e:	80 91 69 00 	lds	r24, 0x0069	; 0x800069 <PassWord_Check_Flag>
    1592:	81 11       	cpse	r24, r1
    1594:	36 c0       	rjmp	.+108    	; 0x1602 <Sign_In+0x84>
    1596:	8b e3       	ldi	r24, 0x3B	; 59
    1598:	91 e0       	ldi	r25, 0x01	; 1
    159a:	0e 94 eb 0d 	call	0x1bd6	; 0x1bd6 <USART_u8SendStringSynch>
    159e:	8d e0       	ldi	r24, 0x0D	; 13
    15a0:	0e 94 9c 0d 	call	0x1b38	; 0x1b38 <USART_u8SendData>
    15a4:	80 91 6b 00 	lds	r24, 0x006B	; 0x80006b <Tries>
    15a8:	81 50       	subi	r24, 0x01	; 1
    15aa:	80 93 6b 00 	sts	0x006B, r24	; 0x80006b <Tries>
    15ae:	60 91 6b 00 	lds	r22, 0x006B	; 0x80006b <Tries>
    15b2:	82 e1       	ldi	r24, 0x12	; 18
    15b4:	90 e0       	ldi	r25, 0x00	; 0
    15b6:	0e 94 a8 05 	call	0xb50	; 0xb50 <EEPROM_vWrite>
    15ba:	80 91 6b 00 	lds	r24, 0x006B	; 0x80006b <Tries>
    15be:	88 23       	and	r24, r24
    15c0:	69 f0       	breq	.+26     	; 0x15dc <Sign_In+0x5e>
    15c2:	88 e5       	ldi	r24, 0x58	; 88
    15c4:	91 e0       	ldi	r25, 0x01	; 1
    15c6:	0e 94 eb 0d 	call	0x1bd6	; 0x1bd6 <USART_u8SendStringSynch>
    15ca:	80 91 6b 00 	lds	r24, 0x006B	; 0x80006b <Tries>
    15ce:	80 5d       	subi	r24, 0xD0	; 208
    15d0:	0e 94 9c 0d 	call	0x1b38	; 0x1b38 <USART_u8SendData>
    15d4:	8d e0       	ldi	r24, 0x0D	; 13
    15d6:	0e 94 9c 0d 	call	0x1b38	; 0x1b38 <USART_u8SendData>
    15da:	d1 cf       	rjmp	.-94     	; 0x157e <Sign_In>
    15dc:	80 91 6b 00 	lds	r24, 0x006B	; 0x80006b <Tries>
    15e0:	81 11       	cpse	r24, r1
    15e2:	cd cf       	rjmp	.-102    	; 0x157e <Sign_In>
    15e4:	88 e5       	ldi	r24, 0x58	; 88
    15e6:	91 e0       	ldi	r25, 0x01	; 1
    15e8:	0e 94 eb 0d 	call	0x1bd6	; 0x1bd6 <USART_u8SendStringSynch>
    15ec:	80 91 6b 00 	lds	r24, 0x006B	; 0x80006b <Tries>
    15f0:	80 5d       	subi	r24, 0xD0	; 208
    15f2:	0e 94 9c 0d 	call	0x1b38	; 0x1b38 <USART_u8SendData>
    15f6:	8d e0       	ldi	r24, 0x0D	; 13
    15f8:	0e 94 9c 0d 	call	0x1b38	; 0x1b38 <USART_u8SendData>
    15fc:	0e 94 46 0a 	call	0x148c	; 0x148c <Error_TimeOut>
    1600:	be cf       	rjmp	.-132    	; 0x157e <Sign_In>
    1602:	86 e6       	ldi	r24, 0x66	; 102
    1604:	91 e0       	ldi	r25, 0x01	; 1
    1606:	0e 94 eb 0d 	call	0x1bd6	; 0x1bd6 <USART_u8SendStringSynch>
    160a:	6f ef       	ldi	r22, 0xFF	; 255
    160c:	82 e1       	ldi	r24, 0x12	; 18
    160e:	90 e0       	ldi	r25, 0x00	; 0
    1610:	0e 94 a8 05 	call	0xb50	; 0xb50 <EEPROM_vWrite>
    1614:	83 e0       	ldi	r24, 0x03	; 3
    1616:	80 93 6b 00 	sts	0x006B, r24	; 0x80006b <Tries>
    161a:	8d e0       	ldi	r24, 0x0D	; 13
    161c:	0c 94 9c 0d 	jmp	0x1b38	; 0x1b38 <USART_u8SendData>

00001620 <SM_vInit>:
    1620:	41 e0       	ldi	r20, 0x01	; 1
    1622:	65 e0       	ldi	r22, 0x05	; 5
    1624:	83 e0       	ldi	r24, 0x03	; 3
    1626:	0c 94 8e 03 	jmp	0x71c	; 0x71c <DIO_enumSetPinDir>

0000162a <SM_vTimer1Degree>:
    162a:	1d bc       	out	0x2d, r1	; 45
    162c:	1c bc       	out	0x2c, r1	; 44
    162e:	68 2f       	mov	r22, r24
    1630:	88 0f       	add	r24, r24
    1632:	77 0b       	sbc	r23, r23
    1634:	88 0b       	sbc	r24, r24
    1636:	99 0b       	sbc	r25, r25
    1638:	0e 94 32 12 	call	0x2464	; 0x2464 <__floatsisf>
    163c:	21 e6       	ldi	r18, 0x61	; 97
    163e:	3b e0       	ldi	r19, 0x0B	; 11
    1640:	46 eb       	ldi	r20, 0xB6	; 182
    1642:	5b e3       	ldi	r21, 0x3B	; 59
    1644:	0e 94 f2 12 	call	0x25e4	; 0x25e4 <__mulsf3>
    1648:	20 e0       	ldi	r18, 0x00	; 0
    164a:	30 e0       	ldi	r19, 0x00	; 0
    164c:	40 ec       	ldi	r20, 0xC0	; 192
    164e:	5f e3       	ldi	r21, 0x3F	; 63
    1650:	0e 94 4d 11 	call	0x229a	; 0x229a <__addsf3>
    1654:	20 e0       	ldi	r18, 0x00	; 0
    1656:	30 e0       	ldi	r19, 0x00	; 0
    1658:	4a e7       	ldi	r20, 0x7A	; 122
    165a:	54 e4       	ldi	r21, 0x44	; 68
    165c:	0e 94 f2 12 	call	0x25e4	; 0x25e4 <__mulsf3>
    1660:	0e 94 01 12 	call	0x2402	; 0x2402 <__fixunssfsi>
    1664:	7b bd       	out	0x2b, r23	; 43
    1666:	6a bd       	out	0x2a, r22	; 42
    1668:	08 95       	ret

0000166a <System_vInit>:
    166a:	0e 94 49 00 	call	0x92	; 0x92 <ADC_vInit>
    166e:	0e 94 05 07 	call	0xe0a	; 0xe0a <GIE_vEnable>
    1672:	0e 94 8e 0d 	call	0x1b1c	; 0x1b1c <USART_vInit>
    1676:	0e 94 03 02 	call	0x406	; 0x406 <CLCD_vInit>
    167a:	0e 94 6b 0a 	call	0x14d6	; 0x14d6 <EEPROM_vInit>
    167e:	0e 94 91 0b 	call	0x1722	; 0x1722 <TIMER1_vInit>
    1682:	0e 94 10 0b 	call	0x1620	; 0x1620 <SM_vInit>
    1686:	41 e0       	ldi	r20, 0x01	; 1
    1688:	60 e0       	ldi	r22, 0x00	; 0
    168a:	81 e0       	ldi	r24, 0x01	; 1
    168c:	0e 94 8e 03 	call	0x71c	; 0x71c <DIO_enumSetPinDir>
    1690:	40 e0       	ldi	r20, 0x00	; 0
    1692:	60 e0       	ldi	r22, 0x00	; 0
    1694:	81 e0       	ldi	r24, 0x01	; 1
    1696:	0e 94 ce 03 	call	0x79c	; 0x79c <DIO_enumWritePinVal>
    169a:	41 e0       	ldi	r20, 0x01	; 1
    169c:	61 e0       	ldi	r22, 0x01	; 1
    169e:	81 e0       	ldi	r24, 0x01	; 1
    16a0:	0e 94 8e 03 	call	0x71c	; 0x71c <DIO_enumSetPinDir>
    16a4:	40 e0       	ldi	r20, 0x00	; 0
    16a6:	61 e0       	ldi	r22, 0x01	; 1
    16a8:	81 e0       	ldi	r24, 0x01	; 1
    16aa:	0e 94 ce 03 	call	0x79c	; 0x79c <DIO_enumWritePinVal>
    16ae:	40 e0       	ldi	r20, 0x00	; 0
    16b0:	62 e0       	ldi	r22, 0x02	; 2
    16b2:	81 e0       	ldi	r24, 0x01	; 1
    16b4:	0e 94 8e 03 	call	0x71c	; 0x71c <DIO_enumSetPinDir>
    16b8:	86 e0       	ldi	r24, 0x06	; 6
    16ba:	0e 94 37 06 	call	0xc6e	; 0xc6e <EXTI_vEnableInterrupt>
    16be:	66 e0       	ldi	r22, 0x06	; 6
    16c0:	80 e0       	ldi	r24, 0x00	; 0
    16c2:	0e 94 bc 05 	call	0xb78	; 0xb78 <EXTI_vSetSignal>
    16c6:	66 e0       	ldi	r22, 0x06	; 6
    16c8:	8c eb       	ldi	r24, 0xBC	; 188
    16ca:	90 e1       	ldi	r25, 0x10	; 16
    16cc:	0e 94 67 06 	call	0xcce	; 0xcce <EXTI_vSetCallBack>
    16d0:	41 e0       	ldi	r20, 0x01	; 1
    16d2:	62 e0       	ldi	r22, 0x02	; 2
    16d4:	83 e0       	ldi	r24, 0x03	; 3
    16d6:	0e 94 59 04 	call	0x8b2	; 0x8b2 <DIO_enumConnectPullUp>
    16da:	87 e0       	ldi	r24, 0x07	; 7
    16dc:	0e 94 37 06 	call	0xc6e	; 0xc6e <EXTI_vEnableInterrupt>
    16e0:	67 e0       	ldi	r22, 0x07	; 7
    16e2:	81 e0       	ldi	r24, 0x01	; 1
    16e4:	0e 94 bc 05 	call	0xb78	; 0xb78 <EXTI_vSetSignal>
    16e8:	67 e0       	ldi	r22, 0x07	; 7
    16ea:	85 ec       	ldi	r24, 0xC5	; 197
    16ec:	90 e1       	ldi	r25, 0x10	; 16
    16ee:	0e 94 67 06 	call	0xcce	; 0xcce <EXTI_vSetCallBack>
    16f2:	40 e0       	ldi	r20, 0x00	; 0
    16f4:	63 e0       	ldi	r22, 0x03	; 3
    16f6:	83 e0       	ldi	r24, 0x03	; 3
    16f8:	0c 94 8e 03 	jmp	0x71c	; 0x71c <DIO_enumSetPinDir>

000016fc <TIMER0_vInit>:
    16fc:	83 b7       	in	r24, 0x33	; 51
    16fe:	80 64       	ori	r24, 0x40	; 64
    1700:	83 bf       	out	0x33, r24	; 51
    1702:	83 b7       	in	r24, 0x33	; 51
    1704:	88 60       	ori	r24, 0x08	; 8
    1706:	83 bf       	out	0x33, r24	; 51
    1708:	83 b7       	in	r24, 0x33	; 51
    170a:	8f 7e       	andi	r24, 0xEF	; 239
    170c:	83 bf       	out	0x33, r24	; 51
    170e:	83 b7       	in	r24, 0x33	; 51
    1710:	80 62       	ori	r24, 0x20	; 32
    1712:	83 bf       	out	0x33, r24	; 51
    1714:	1c be       	out	0x3c, r1	; 60
    1716:	83 b7       	in	r24, 0x33	; 51
    1718:	88 7f       	andi	r24, 0xF8	; 248
    171a:	83 bf       	out	0x33, r24	; 51
    171c:	83 b7       	in	r24, 0x33	; 51
    171e:	83 bf       	out	0x33, r24	; 51
    1720:	08 95       	ret

00001722 <TIMER1_vInit>:
    1722:	8f b5       	in	r24, 0x2f	; 47
    1724:	8e 7f       	andi	r24, 0xFE	; 254
    1726:	8f bd       	out	0x2f, r24	; 47
    1728:	8f b5       	in	r24, 0x2f	; 47
    172a:	82 60       	ori	r24, 0x02	; 2
    172c:	8f bd       	out	0x2f, r24	; 47
    172e:	8e b5       	in	r24, 0x2e	; 46
    1730:	88 60       	ori	r24, 0x08	; 8
    1732:	8e bd       	out	0x2e, r24	; 46
    1734:	8e b5       	in	r24, 0x2e	; 46
    1736:	80 61       	ori	r24, 0x10	; 16
    1738:	8e bd       	out	0x2e, r24	; 46
    173a:	1b bc       	out	0x2b, r1	; 43
    173c:	1a bc       	out	0x2a, r1	; 42
    173e:	19 bc       	out	0x29, r1	; 41
    1740:	18 bc       	out	0x28, r1	; 40
    1742:	80 e2       	ldi	r24, 0x20	; 32
    1744:	9e e4       	ldi	r25, 0x4E	; 78
    1746:	97 bd       	out	0x27, r25	; 39
    1748:	86 bd       	out	0x26, r24	; 38
    174a:	8e b5       	in	r24, 0x2e	; 46
    174c:	80 64       	ori	r24, 0x40	; 64
    174e:	8e bd       	out	0x2e, r24	; 46
    1750:	8f b5       	in	r24, 0x2f	; 47
    1752:	8f 7b       	andi	r24, 0xBF	; 191
    1754:	8f bd       	out	0x2f, r24	; 47
    1756:	8f b5       	in	r24, 0x2f	; 47
    1758:	80 68       	ori	r24, 0x80	; 128
    175a:	8f bd       	out	0x2f, r24	; 47
    175c:	8f b5       	in	r24, 0x2f	; 47
    175e:	8f 7e       	andi	r24, 0xEF	; 239
    1760:	8f bd       	out	0x2f, r24	; 47
    1762:	8f b5       	in	r24, 0x2f	; 47
    1764:	80 62       	ori	r24, 0x20	; 32
    1766:	8f bd       	out	0x2f, r24	; 47
    1768:	89 b7       	in	r24, 0x39	; 57
    176a:	8b 7f       	andi	r24, 0xFB	; 251
    176c:	89 bf       	out	0x39, r24	; 57
    176e:	89 b7       	in	r24, 0x39	; 57
    1770:	8f 7e       	andi	r24, 0xEF	; 239
    1772:	89 bf       	out	0x39, r24	; 57
    1774:	89 b7       	in	r24, 0x39	; 57
    1776:	87 7f       	andi	r24, 0xF7	; 247
    1778:	89 bf       	out	0x39, r24	; 57
    177a:	89 b7       	in	r24, 0x39	; 57
    177c:	8f 7d       	andi	r24, 0xDF	; 223
    177e:	89 bf       	out	0x39, r24	; 57
    1780:	8e b5       	in	r24, 0x2e	; 46
    1782:	88 7f       	andi	r24, 0xF8	; 248
    1784:	8e bd       	out	0x2e, r24	; 46
    1786:	8e b5       	in	r24, 0x2e	; 46
    1788:	82 60       	ori	r24, 0x02	; 2
    178a:	8e bd       	out	0x2e, r24	; 46
    178c:	08 95       	ret

0000178e <TIMER2_vInit>:
    178e:	82 b5       	in	r24, 0x22	; 34
    1790:	88 60       	ori	r24, 0x08	; 8
    1792:	82 bd       	out	0x22, r24	; 34
    1794:	85 b5       	in	r24, 0x25	; 37
    1796:	8f 7b       	andi	r24, 0xBF	; 191
    1798:	85 bd       	out	0x25, r24	; 37
    179a:	85 b5       	in	r24, 0x25	; 37
    179c:	87 7f       	andi	r24, 0xF7	; 247
    179e:	85 bd       	out	0x25, r24	; 37
    17a0:	14 bc       	out	0x24, r1	; 36
    17a2:	89 b7       	in	r24, 0x39	; 57
    17a4:	80 64       	ori	r24, 0x40	; 64
    17a6:	89 bf       	out	0x39, r24	; 57
    17a8:	85 b5       	in	r24, 0x25	; 37
    17aa:	88 7f       	andi	r24, 0xF8	; 248
    17ac:	85 bd       	out	0x25, r24	; 37
    17ae:	85 b5       	in	r24, 0x25	; 37
    17b0:	85 60       	ori	r24, 0x05	; 5
    17b2:	85 bd       	out	0x25, r24	; 37
    17b4:	08 95       	ret

000017b6 <TIMER0_vSetPreload>:
    17b6:	82 bf       	out	0x32, r24	; 50
    17b8:	08 95       	ret

000017ba <TIMER1_vSetPreload>:
    17ba:	9d bd       	out	0x2d, r25	; 45
    17bc:	8c bd       	out	0x2c, r24	; 44
    17be:	08 95       	ret

000017c0 <TIMER2_vSetPreload>:
    17c0:	84 bd       	out	0x24, r24	; 36
    17c2:	08 95       	ret

000017c4 <TIMER0_vSetCTC>:
    17c4:	8c bf       	out	0x3c, r24	; 60
    17c6:	08 95       	ret

000017c8 <TIMER1_vSetCTCA>:
    17c8:	9b bd       	out	0x2b, r25	; 43
    17ca:	8a bd       	out	0x2a, r24	; 42
    17cc:	08 95       	ret

000017ce <TIMER1_vSetCTCB>:
    17ce:	99 bd       	out	0x29, r25	; 41
    17d0:	88 bd       	out	0x28, r24	; 40
    17d2:	08 95       	ret

000017d4 <TIMER2_vSetCTC>:
    17d4:	83 bd       	out	0x23, r24	; 35
    17d6:	08 95       	ret

000017d8 <TIMER1_vSetICR1>:
    17d8:	97 bd       	out	0x27, r25	; 39
    17da:	86 bd       	out	0x26, r24	; 38
    17dc:	08 95       	ret

000017de <TIMER0_u8GetTimerCounterValue>:
    17de:	82 b7       	in	r24, 0x32	; 50
    17e0:	08 95       	ret

000017e2 <TIMER1_u16GetTimerCounterValue>:
    17e2:	8c b5       	in	r24, 0x2c	; 44
    17e4:	9d b5       	in	r25, 0x2d	; 45
    17e6:	08 95       	ret

000017e8 <TIMER2_u8GetTimerCounterValue>:
    17e8:	84 b5       	in	r24, 0x24	; 36
    17ea:	08 95       	ret

000017ec <TIMER_vSetPWM>:
    17ec:	9b bd       	out	0x2b, r25	; 43
    17ee:	8a bd       	out	0x2a, r24	; 42
    17f0:	08 95       	ret

000017f2 <Timer2_vSetPrescaler>:
    17f2:	95 b5       	in	r25, 0x25	; 37
    17f4:	98 7f       	andi	r25, 0xF8	; 248
    17f6:	95 bd       	out	0x25, r25	; 37
    17f8:	95 b5       	in	r25, 0x25	; 37
    17fa:	89 2b       	or	r24, r25
    17fc:	85 bd       	out	0x25, r24	; 37
    17fe:	08 95       	ret

00001800 <Timer0_vSetPrescaler>:
    1800:	93 b7       	in	r25, 0x33	; 51
    1802:	98 7f       	andi	r25, 0xF8	; 248
    1804:	93 bf       	out	0x33, r25	; 51
    1806:	93 b7       	in	r25, 0x33	; 51
    1808:	89 2b       	or	r24, r25
    180a:	83 bf       	out	0x33, r24	; 51
    180c:	08 95       	ret

0000180e <TIMER_vICUInitEnable>:
    180e:	8e b5       	in	r24, 0x2e	; 46
    1810:	80 64       	ori	r24, 0x40	; 64
    1812:	8e bd       	out	0x2e, r24	; 46
    1814:	89 b7       	in	r24, 0x39	; 57
    1816:	80 62       	ori	r24, 0x20	; 32
    1818:	89 bf       	out	0x39, r24	; 57
    181a:	08 95       	ret

0000181c <TIMER_vICUSetTriggerEdge>:
    181c:	81 30       	cpi	r24, 0x01	; 1
    181e:	29 f4       	brne	.+10     	; 0x182a <TIMER_vICUSetTriggerEdge+0xe>
    1820:	8e b5       	in	r24, 0x2e	; 46
    1822:	80 64       	ori	r24, 0x40	; 64
    1824:	8e bd       	out	0x2e, r24	; 46
    1826:	80 e0       	ldi	r24, 0x00	; 0
    1828:	08 95       	ret
    182a:	81 11       	cpse	r24, r1
    182c:	04 c0       	rjmp	.+8      	; 0x1836 <TIMER_vICUSetTriggerEdge+0x1a>
    182e:	9e b5       	in	r25, 0x2e	; 46
    1830:	9f 7b       	andi	r25, 0xBF	; 191
    1832:	9e bd       	out	0x2e, r25	; 46
    1834:	08 95       	ret
    1836:	81 e0       	ldi	r24, 0x01	; 1
    1838:	08 95       	ret

0000183a <TIMER_vICUEnableInterrupt>:
    183a:	89 b7       	in	r24, 0x39	; 57
    183c:	80 62       	ori	r24, 0x20	; 32
    183e:	89 bf       	out	0x39, r24	; 57
    1840:	08 95       	ret

00001842 <TIMER_vICUDisableInterrupt>:
    1842:	89 b7       	in	r24, 0x39	; 57
    1844:	8f 7d       	andi	r24, 0xDF	; 223
    1846:	89 bf       	out	0x39, r24	; 57
    1848:	08 95       	ret

0000184a <TIMER_u16GetICR>:
    184a:	86 b5       	in	r24, 0x26	; 38
    184c:	97 b5       	in	r25, 0x27	; 39
    184e:	08 95       	ret

00001850 <TIMER_vWDTSleep>:
    1850:	81 b5       	in	r24, 0x21	; 33
    1852:	88 7f       	andi	r24, 0xF8	; 248
    1854:	81 bd       	out	0x21, r24	; 33
    1856:	81 b5       	in	r24, 0x21	; 33
    1858:	86 60       	ori	r24, 0x06	; 6
    185a:	81 bd       	out	0x21, r24	; 33
    185c:	08 95       	ret

0000185e <TIMER_vWDTEnable>:
    185e:	81 b5       	in	r24, 0x21	; 33
    1860:	88 60       	ori	r24, 0x08	; 8
    1862:	81 bd       	out	0x21, r24	; 33
    1864:	08 95       	ret

00001866 <TIMER_vWDTDisable>:
    1866:	81 b5       	in	r24, 0x21	; 33
    1868:	88 61       	ori	r24, 0x18	; 24
    186a:	81 bd       	out	0x21, r24	; 33
    186c:	11 bc       	out	0x21, r1	; 33
    186e:	08 95       	ret

00001870 <TIMER_u8SetCallBack>:
    1870:	00 97       	sbiw	r24, 0x00	; 0
    1872:	51 f0       	breq	.+20     	; 0x1888 <TIMER_u8SetCallBack+0x18>
    1874:	e6 2f       	mov	r30, r22
    1876:	f0 e0       	ldi	r31, 0x00	; 0
    1878:	ee 0f       	add	r30, r30
    187a:	ff 1f       	adc	r31, r31
    187c:	e2 5f       	subi	r30, 0xF2	; 242
    187e:	fd 4f       	sbci	r31, 0xFD	; 253
    1880:	91 83       	std	Z+1, r25	; 0x01
    1882:	80 83       	st	Z, r24
    1884:	80 e0       	ldi	r24, 0x00	; 0
    1886:	08 95       	ret
    1888:	82 e0       	ldi	r24, 0x02	; 2
    188a:	08 95       	ret

0000188c <__vector_11>:
    188c:	1f 92       	push	r1
    188e:	0f 92       	push	r0
    1890:	0f b6       	in	r0, 0x3f	; 63
    1892:	0f 92       	push	r0
    1894:	11 24       	eor	r1, r1
    1896:	2f 93       	push	r18
    1898:	3f 93       	push	r19
    189a:	4f 93       	push	r20
    189c:	5f 93       	push	r21
    189e:	6f 93       	push	r22
    18a0:	7f 93       	push	r23
    18a2:	8f 93       	push	r24
    18a4:	9f 93       	push	r25
    18a6:	af 93       	push	r26
    18a8:	bf 93       	push	r27
    18aa:	ef 93       	push	r30
    18ac:	ff 93       	push	r31
    18ae:	e0 91 24 02 	lds	r30, 0x0224	; 0x800224 <USART_pu8ReceiveData+0x1>
    18b2:	f0 91 25 02 	lds	r31, 0x0225	; 0x800225 <USART_pu8SendData>
    18b6:	30 97       	sbiw	r30, 0x00	; 0
    18b8:	09 f0       	breq	.+2      	; 0x18bc <__vector_11+0x30>
    18ba:	09 95       	icall
    18bc:	ff 91       	pop	r31
    18be:	ef 91       	pop	r30
    18c0:	bf 91       	pop	r27
    18c2:	af 91       	pop	r26
    18c4:	9f 91       	pop	r25
    18c6:	8f 91       	pop	r24
    18c8:	7f 91       	pop	r23
    18ca:	6f 91       	pop	r22
    18cc:	5f 91       	pop	r21
    18ce:	4f 91       	pop	r20
    18d0:	3f 91       	pop	r19
    18d2:	2f 91       	pop	r18
    18d4:	0f 90       	pop	r0
    18d6:	0f be       	out	0x3f, r0	; 63
    18d8:	0f 90       	pop	r0
    18da:	1f 90       	pop	r1
    18dc:	18 95       	reti

000018de <__vector_10>:
    18de:	1f 92       	push	r1
    18e0:	0f 92       	push	r0
    18e2:	0f b6       	in	r0, 0x3f	; 63
    18e4:	0f 92       	push	r0
    18e6:	11 24       	eor	r1, r1
    18e8:	2f 93       	push	r18
    18ea:	3f 93       	push	r19
    18ec:	4f 93       	push	r20
    18ee:	5f 93       	push	r21
    18f0:	6f 93       	push	r22
    18f2:	7f 93       	push	r23
    18f4:	8f 93       	push	r24
    18f6:	9f 93       	push	r25
    18f8:	af 93       	push	r26
    18fa:	bf 93       	push	r27
    18fc:	ef 93       	push	r30
    18fe:	ff 93       	push	r31
    1900:	e0 91 22 02 	lds	r30, 0x0222	; 0x800222 <USART_u8BufferSize>
    1904:	f0 91 23 02 	lds	r31, 0x0223	; 0x800223 <USART_pu8ReceiveData>
    1908:	30 97       	sbiw	r30, 0x00	; 0
    190a:	09 f0       	breq	.+2      	; 0x190e <__vector_10+0x30>
    190c:	09 95       	icall
    190e:	ff 91       	pop	r31
    1910:	ef 91       	pop	r30
    1912:	bf 91       	pop	r27
    1914:	af 91       	pop	r26
    1916:	9f 91       	pop	r25
    1918:	8f 91       	pop	r24
    191a:	7f 91       	pop	r23
    191c:	6f 91       	pop	r22
    191e:	5f 91       	pop	r21
    1920:	4f 91       	pop	r20
    1922:	3f 91       	pop	r19
    1924:	2f 91       	pop	r18
    1926:	0f 90       	pop	r0
    1928:	0f be       	out	0x3f, r0	; 63
    192a:	0f 90       	pop	r0
    192c:	1f 90       	pop	r1
    192e:	18 95       	reti

00001930 <__vector_9>:
    1930:	1f 92       	push	r1
    1932:	0f 92       	push	r0
    1934:	0f b6       	in	r0, 0x3f	; 63
    1936:	0f 92       	push	r0
    1938:	11 24       	eor	r1, r1
    193a:	2f 93       	push	r18
    193c:	3f 93       	push	r19
    193e:	4f 93       	push	r20
    1940:	5f 93       	push	r21
    1942:	6f 93       	push	r22
    1944:	7f 93       	push	r23
    1946:	8f 93       	push	r24
    1948:	9f 93       	push	r25
    194a:	af 93       	push	r26
    194c:	bf 93       	push	r27
    194e:	ef 93       	push	r30
    1950:	ff 93       	push	r31
    1952:	e0 91 20 02 	lds	r30, 0x0220	; 0x800220 <USART_pvNotificationFunc+0x1>
    1956:	f0 91 21 02 	lds	r31, 0x0221	; 0x800221 <USART_u8Index>
    195a:	30 97       	sbiw	r30, 0x00	; 0
    195c:	09 f0       	breq	.+2      	; 0x1960 <__vector_9+0x30>
    195e:	09 95       	icall
    1960:	ff 91       	pop	r31
    1962:	ef 91       	pop	r30
    1964:	bf 91       	pop	r27
    1966:	af 91       	pop	r26
    1968:	9f 91       	pop	r25
    196a:	8f 91       	pop	r24
    196c:	7f 91       	pop	r23
    196e:	6f 91       	pop	r22
    1970:	5f 91       	pop	r21
    1972:	4f 91       	pop	r20
    1974:	3f 91       	pop	r19
    1976:	2f 91       	pop	r18
    1978:	0f 90       	pop	r0
    197a:	0f be       	out	0x3f, r0	; 63
    197c:	0f 90       	pop	r0
    197e:	1f 90       	pop	r1
    1980:	18 95       	reti

00001982 <__vector_8>:
    1982:	1f 92       	push	r1
    1984:	0f 92       	push	r0
    1986:	0f b6       	in	r0, 0x3f	; 63
    1988:	0f 92       	push	r0
    198a:	11 24       	eor	r1, r1
    198c:	2f 93       	push	r18
    198e:	3f 93       	push	r19
    1990:	4f 93       	push	r20
    1992:	5f 93       	push	r21
    1994:	6f 93       	push	r22
    1996:	7f 93       	push	r23
    1998:	8f 93       	push	r24
    199a:	9f 93       	push	r25
    199c:	af 93       	push	r26
    199e:	bf 93       	push	r27
    19a0:	ef 93       	push	r30
    19a2:	ff 93       	push	r31
    19a4:	e0 91 1e 02 	lds	r30, 0x021E	; 0x80021e <USART_u8State>
    19a8:	f0 91 1f 02 	lds	r31, 0x021F	; 0x80021f <USART_pvNotificationFunc>
    19ac:	30 97       	sbiw	r30, 0x00	; 0
    19ae:	09 f0       	breq	.+2      	; 0x19b2 <__vector_8+0x30>
    19b0:	09 95       	icall
    19b2:	ff 91       	pop	r31
    19b4:	ef 91       	pop	r30
    19b6:	bf 91       	pop	r27
    19b8:	af 91       	pop	r26
    19ba:	9f 91       	pop	r25
    19bc:	8f 91       	pop	r24
    19be:	7f 91       	pop	r23
    19c0:	6f 91       	pop	r22
    19c2:	5f 91       	pop	r21
    19c4:	4f 91       	pop	r20
    19c6:	3f 91       	pop	r19
    19c8:	2f 91       	pop	r18
    19ca:	0f 90       	pop	r0
    19cc:	0f be       	out	0x3f, r0	; 63
    19ce:	0f 90       	pop	r0
    19d0:	1f 90       	pop	r1
    19d2:	18 95       	reti

000019d4 <__vector_7>:
    19d4:	1f 92       	push	r1
    19d6:	0f 92       	push	r0
    19d8:	0f b6       	in	r0, 0x3f	; 63
    19da:	0f 92       	push	r0
    19dc:	11 24       	eor	r1, r1
    19de:	2f 93       	push	r18
    19e0:	3f 93       	push	r19
    19e2:	4f 93       	push	r20
    19e4:	5f 93       	push	r21
    19e6:	6f 93       	push	r22
    19e8:	7f 93       	push	r23
    19ea:	8f 93       	push	r24
    19ec:	9f 93       	push	r25
    19ee:	af 93       	push	r26
    19f0:	bf 93       	push	r27
    19f2:	ef 93       	push	r30
    19f4:	ff 93       	push	r31
    19f6:	e0 91 1c 02 	lds	r30, 0x021C	; 0x80021c <TIMERS_pvCallBackFunc+0xe>
    19fa:	f0 91 1d 02 	lds	r31, 0x021D	; 0x80021d <TIMERS_pvCallBackFunc+0xf>
    19fe:	30 97       	sbiw	r30, 0x00	; 0
    1a00:	09 f0       	breq	.+2      	; 0x1a04 <__vector_7+0x30>
    1a02:	09 95       	icall
    1a04:	ff 91       	pop	r31
    1a06:	ef 91       	pop	r30
    1a08:	bf 91       	pop	r27
    1a0a:	af 91       	pop	r26
    1a0c:	9f 91       	pop	r25
    1a0e:	8f 91       	pop	r24
    1a10:	7f 91       	pop	r23
    1a12:	6f 91       	pop	r22
    1a14:	5f 91       	pop	r21
    1a16:	4f 91       	pop	r20
    1a18:	3f 91       	pop	r19
    1a1a:	2f 91       	pop	r18
    1a1c:	0f 90       	pop	r0
    1a1e:	0f be       	out	0x3f, r0	; 63
    1a20:	0f 90       	pop	r0
    1a22:	1f 90       	pop	r1
    1a24:	18 95       	reti

00001a26 <__vector_6>:
    1a26:	1f 92       	push	r1
    1a28:	0f 92       	push	r0
    1a2a:	0f b6       	in	r0, 0x3f	; 63
    1a2c:	0f 92       	push	r0
    1a2e:	11 24       	eor	r1, r1
    1a30:	2f 93       	push	r18
    1a32:	3f 93       	push	r19
    1a34:	4f 93       	push	r20
    1a36:	5f 93       	push	r21
    1a38:	6f 93       	push	r22
    1a3a:	7f 93       	push	r23
    1a3c:	8f 93       	push	r24
    1a3e:	9f 93       	push	r25
    1a40:	af 93       	push	r26
    1a42:	bf 93       	push	r27
    1a44:	ef 93       	push	r30
    1a46:	ff 93       	push	r31
    1a48:	e0 91 1a 02 	lds	r30, 0x021A	; 0x80021a <TIMERS_pvCallBackFunc+0xc>
    1a4c:	f0 91 1b 02 	lds	r31, 0x021B	; 0x80021b <TIMERS_pvCallBackFunc+0xd>
    1a50:	30 97       	sbiw	r30, 0x00	; 0
    1a52:	09 f0       	breq	.+2      	; 0x1a56 <__vector_6+0x30>
    1a54:	09 95       	icall
    1a56:	ff 91       	pop	r31
    1a58:	ef 91       	pop	r30
    1a5a:	bf 91       	pop	r27
    1a5c:	af 91       	pop	r26
    1a5e:	9f 91       	pop	r25
    1a60:	8f 91       	pop	r24
    1a62:	7f 91       	pop	r23
    1a64:	6f 91       	pop	r22
    1a66:	5f 91       	pop	r21
    1a68:	4f 91       	pop	r20
    1a6a:	3f 91       	pop	r19
    1a6c:	2f 91       	pop	r18
    1a6e:	0f 90       	pop	r0
    1a70:	0f be       	out	0x3f, r0	; 63
    1a72:	0f 90       	pop	r0
    1a74:	1f 90       	pop	r1
    1a76:	18 95       	reti

00001a78 <__vector_5>:
    1a78:	1f 92       	push	r1
    1a7a:	0f 92       	push	r0
    1a7c:	0f b6       	in	r0, 0x3f	; 63
    1a7e:	0f 92       	push	r0
    1a80:	11 24       	eor	r1, r1
    1a82:	2f 93       	push	r18
    1a84:	3f 93       	push	r19
    1a86:	4f 93       	push	r20
    1a88:	5f 93       	push	r21
    1a8a:	6f 93       	push	r22
    1a8c:	7f 93       	push	r23
    1a8e:	8f 93       	push	r24
    1a90:	9f 93       	push	r25
    1a92:	af 93       	push	r26
    1a94:	bf 93       	push	r27
    1a96:	ef 93       	push	r30
    1a98:	ff 93       	push	r31
    1a9a:	e0 91 18 02 	lds	r30, 0x0218	; 0x800218 <TIMERS_pvCallBackFunc+0xa>
    1a9e:	f0 91 19 02 	lds	r31, 0x0219	; 0x800219 <TIMERS_pvCallBackFunc+0xb>
    1aa2:	30 97       	sbiw	r30, 0x00	; 0
    1aa4:	09 f0       	breq	.+2      	; 0x1aa8 <__vector_5+0x30>
    1aa6:	09 95       	icall
    1aa8:	ff 91       	pop	r31
    1aaa:	ef 91       	pop	r30
    1aac:	bf 91       	pop	r27
    1aae:	af 91       	pop	r26
    1ab0:	9f 91       	pop	r25
    1ab2:	8f 91       	pop	r24
    1ab4:	7f 91       	pop	r23
    1ab6:	6f 91       	pop	r22
    1ab8:	5f 91       	pop	r21
    1aba:	4f 91       	pop	r20
    1abc:	3f 91       	pop	r19
    1abe:	2f 91       	pop	r18
    1ac0:	0f 90       	pop	r0
    1ac2:	0f be       	out	0x3f, r0	; 63
    1ac4:	0f 90       	pop	r0
    1ac6:	1f 90       	pop	r1
    1ac8:	18 95       	reti

00001aca <__vector_4>:
    1aca:	1f 92       	push	r1
    1acc:	0f 92       	push	r0
    1ace:	0f b6       	in	r0, 0x3f	; 63
    1ad0:	0f 92       	push	r0
    1ad2:	11 24       	eor	r1, r1
    1ad4:	2f 93       	push	r18
    1ad6:	3f 93       	push	r19
    1ad8:	4f 93       	push	r20
    1ada:	5f 93       	push	r21
    1adc:	6f 93       	push	r22
    1ade:	7f 93       	push	r23
    1ae0:	8f 93       	push	r24
    1ae2:	9f 93       	push	r25
    1ae4:	af 93       	push	r26
    1ae6:	bf 93       	push	r27
    1ae8:	ef 93       	push	r30
    1aea:	ff 93       	push	r31
    1aec:	e0 91 16 02 	lds	r30, 0x0216	; 0x800216 <TIMERS_pvCallBackFunc+0x8>
    1af0:	f0 91 17 02 	lds	r31, 0x0217	; 0x800217 <TIMERS_pvCallBackFunc+0x9>
    1af4:	30 97       	sbiw	r30, 0x00	; 0
    1af6:	09 f0       	breq	.+2      	; 0x1afa <__vector_4+0x30>
    1af8:	09 95       	icall
    1afa:	ff 91       	pop	r31
    1afc:	ef 91       	pop	r30
    1afe:	bf 91       	pop	r27
    1b00:	af 91       	pop	r26
    1b02:	9f 91       	pop	r25
    1b04:	8f 91       	pop	r24
    1b06:	7f 91       	pop	r23
    1b08:	6f 91       	pop	r22
    1b0a:	5f 91       	pop	r21
    1b0c:	4f 91       	pop	r20
    1b0e:	3f 91       	pop	r19
    1b10:	2f 91       	pop	r18
    1b12:	0f 90       	pop	r0
    1b14:	0f be       	out	0x3f, r0	; 63
    1b16:	0f 90       	pop	r0
    1b18:	1f 90       	pop	r1
    1b1a:	18 95       	reti

00001b1c <USART_vInit>:
    1b1c:	59 9a       	sbi	0x0b, 1	; 11
    1b1e:	10 bc       	out	0x20, r1	; 32
    1b20:	87 e6       	ldi	r24, 0x67	; 103
    1b22:	89 b9       	out	0x09, r24	; 9
    1b24:	58 98       	cbi	0x0b, 0	; 11
    1b26:	52 98       	cbi	0x0a, 2	; 10
    1b28:	86 e8       	ldi	r24, 0x86	; 134
    1b2a:	80 bd       	out	0x20, r24	; 32
    1b2c:	57 98       	cbi	0x0a, 7	; 10
    1b2e:	56 98       	cbi	0x0a, 6	; 10
    1b30:	55 98       	cbi	0x0a, 5	; 10
    1b32:	54 9a       	sbi	0x0a, 4	; 10
    1b34:	53 9a       	sbi	0x0a, 3	; 10
    1b36:	08 95       	ret

00001b38 <USART_u8SendData>:
    1b38:	98 2f       	mov	r25, r24
    1b3a:	80 91 1e 02 	lds	r24, 0x021E	; 0x80021e <USART_u8State>
    1b3e:	81 11       	cpse	r24, r1
    1b40:	1e c0       	rjmp	.+60     	; 0x1b7e <USART_u8SendData+0x46>
    1b42:	21 e0       	ldi	r18, 0x01	; 1
    1b44:	20 93 1e 02 	sts	0x021E, r18	; 0x80021e <USART_u8State>
    1b48:	40 e0       	ldi	r20, 0x00	; 0
    1b4a:	50 e0       	ldi	r21, 0x00	; 0
    1b4c:	ba 01       	movw	r22, r20
    1b4e:	5d 99       	sbic	0x0b, 5	; 11
    1b50:	0d c0       	rjmp	.+26     	; 0x1b6c <USART_u8SendData+0x34>
    1b52:	40 31       	cpi	r20, 0x10	; 16
    1b54:	27 e2       	ldi	r18, 0x27	; 39
    1b56:	52 07       	cpc	r21, r18
    1b58:	61 05       	cpc	r22, r1
    1b5a:	71 05       	cpc	r23, r1
    1b5c:	11 f4       	brne	.+4      	; 0x1b62 <USART_u8SendData+0x2a>
    1b5e:	84 e0       	ldi	r24, 0x04	; 4
    1b60:	0b c0       	rjmp	.+22     	; 0x1b78 <USART_u8SendData+0x40>
    1b62:	4f 5f       	subi	r20, 0xFF	; 255
    1b64:	5f 4f       	sbci	r21, 0xFF	; 255
    1b66:	6f 4f       	sbci	r22, 0xFF	; 255
    1b68:	7f 4f       	sbci	r23, 0xFF	; 255
    1b6a:	f1 cf       	rjmp	.-30     	; 0x1b4e <USART_u8SendData+0x16>
    1b6c:	40 31       	cpi	r20, 0x10	; 16
    1b6e:	57 42       	sbci	r21, 0x27	; 39
    1b70:	61 05       	cpc	r22, r1
    1b72:	71 05       	cpc	r23, r1
    1b74:	a1 f3       	breq	.-24     	; 0x1b5e <USART_u8SendData+0x26>
    1b76:	9c b9       	out	0x0c, r25	; 12
    1b78:	10 92 1e 02 	sts	0x021E, r1	; 0x80021e <USART_u8State>
    1b7c:	08 95       	ret
    1b7e:	83 e0       	ldi	r24, 0x03	; 3
    1b80:	08 95       	ret

00001b82 <USART_u8ReceiveData>:
    1b82:	fc 01       	movw	r30, r24
    1b84:	89 2b       	or	r24, r25
    1b86:	19 f1       	breq	.+70     	; 0x1bce <USART_u8ReceiveData+0x4c>
    1b88:	80 91 1e 02 	lds	r24, 0x021E	; 0x80021e <USART_u8State>
    1b8c:	81 11       	cpse	r24, r1
    1b8e:	21 c0       	rjmp	.+66     	; 0x1bd2 <USART_u8ReceiveData+0x50>
    1b90:	91 e0       	ldi	r25, 0x01	; 1
    1b92:	90 93 1e 02 	sts	0x021E, r25	; 0x80021e <USART_u8State>
    1b96:	40 e0       	ldi	r20, 0x00	; 0
    1b98:	50 e0       	ldi	r21, 0x00	; 0
    1b9a:	ba 01       	movw	r22, r20
    1b9c:	5f 99       	sbic	0x0b, 7	; 11
    1b9e:	0d c0       	rjmp	.+26     	; 0x1bba <USART_u8ReceiveData+0x38>
    1ba0:	40 31       	cpi	r20, 0x10	; 16
    1ba2:	97 e2       	ldi	r25, 0x27	; 39
    1ba4:	59 07       	cpc	r21, r25
    1ba6:	61 05       	cpc	r22, r1
    1ba8:	71 05       	cpc	r23, r1
    1baa:	11 f4       	brne	.+4      	; 0x1bb0 <USART_u8ReceiveData+0x2e>
    1bac:	84 e0       	ldi	r24, 0x04	; 4
    1bae:	0c c0       	rjmp	.+24     	; 0x1bc8 <USART_u8ReceiveData+0x46>
    1bb0:	4f 5f       	subi	r20, 0xFF	; 255
    1bb2:	5f 4f       	sbci	r21, 0xFF	; 255
    1bb4:	6f 4f       	sbci	r22, 0xFF	; 255
    1bb6:	7f 4f       	sbci	r23, 0xFF	; 255
    1bb8:	f1 cf       	rjmp	.-30     	; 0x1b9c <USART_u8ReceiveData+0x1a>
    1bba:	40 31       	cpi	r20, 0x10	; 16
    1bbc:	57 42       	sbci	r21, 0x27	; 39
    1bbe:	61 05       	cpc	r22, r1
    1bc0:	71 05       	cpc	r23, r1
    1bc2:	a1 f3       	breq	.-24     	; 0x1bac <USART_u8ReceiveData+0x2a>
    1bc4:	9c b1       	in	r25, 0x0c	; 12
    1bc6:	90 83       	st	Z, r25
    1bc8:	10 92 1e 02 	sts	0x021E, r1	; 0x80021e <USART_u8State>
    1bcc:	08 95       	ret
    1bce:	82 e0       	ldi	r24, 0x02	; 2
    1bd0:	08 95       	ret
    1bd2:	83 e0       	ldi	r24, 0x03	; 3
    1bd4:	08 95       	ret

00001bd6 <USART_u8SendStringSynch>:
    1bd6:	cf 93       	push	r28
    1bd8:	df 93       	push	r29
    1bda:	ec 01       	movw	r28, r24
    1bdc:	89 2b       	or	r24, r25
    1bde:	79 f4       	brne	.+30     	; 0x1bfe <USART_u8SendStringSynch+0x28>
    1be0:	82 e0       	ldi	r24, 0x02	; 2
    1be2:	10 c0       	rjmp	.+32     	; 0x1c04 <USART_u8SendStringSynch+0x2e>
    1be4:	0e 94 9c 0d 	call	0x1b38	; 0x1b38 <USART_u8SendData>
    1be8:	2f ef       	ldi	r18, 0xFF	; 255
    1bea:	30 e7       	ldi	r19, 0x70	; 112
    1bec:	92 e0       	ldi	r25, 0x02	; 2
    1bee:	21 50       	subi	r18, 0x01	; 1
    1bf0:	30 40       	sbci	r19, 0x00	; 0
    1bf2:	90 40       	sbci	r25, 0x00	; 0
    1bf4:	e1 f7       	brne	.-8      	; 0x1bee <USART_u8SendStringSynch+0x18>
    1bf6:	00 c0       	rjmp	.+0      	; 0x1bf8 <USART_u8SendStringSynch+0x22>
    1bf8:	00 00       	nop
    1bfa:	81 11       	cpse	r24, r1
    1bfc:	03 c0       	rjmp	.+6      	; 0x1c04 <USART_u8SendStringSynch+0x2e>
    1bfe:	89 91       	ld	r24, Y+
    1c00:	81 11       	cpse	r24, r1
    1c02:	f0 cf       	rjmp	.-32     	; 0x1be4 <USART_u8SendStringSynch+0xe>
    1c04:	df 91       	pop	r29
    1c06:	cf 91       	pop	r28
    1c08:	08 95       	ret

00001c0a <USART_u8SendStringAsynch>:
    1c0a:	fc 01       	movw	r30, r24
    1c0c:	80 91 1e 02 	lds	r24, 0x021E	; 0x80021e <USART_u8State>
    1c10:	81 11       	cpse	r24, r1
    1c12:	16 c0       	rjmp	.+44     	; 0x1c40 <USART_u8SendStringAsynch+0x36>
    1c14:	30 97       	sbiw	r30, 0x00	; 0
    1c16:	b1 f0       	breq	.+44     	; 0x1c44 <USART_u8SendStringAsynch+0x3a>
    1c18:	61 15       	cp	r22, r1
    1c1a:	71 05       	cpc	r23, r1
    1c1c:	99 f0       	breq	.+38     	; 0x1c44 <USART_u8SendStringAsynch+0x3a>
    1c1e:	91 e0       	ldi	r25, 0x01	; 1
    1c20:	90 93 1e 02 	sts	0x021E, r25	; 0x80021e <USART_u8State>
    1c24:	f0 93 26 02 	sts	0x0226, r31	; 0x800226 <USART_pu8SendData+0x1>
    1c28:	e0 93 25 02 	sts	0x0225, r30	; 0x800225 <USART_pu8SendData>
    1c2c:	70 93 20 02 	sts	0x0220, r23	; 0x800220 <USART_pvNotificationFunc+0x1>
    1c30:	60 93 1f 02 	sts	0x021F, r22	; 0x80021f <USART_pvNotificationFunc>
    1c34:	10 92 21 02 	sts	0x0221, r1	; 0x800221 <USART_u8Index>
    1c38:	90 81       	ld	r25, Z
    1c3a:	9c b9       	out	0x0c, r25	; 12
    1c3c:	56 9a       	sbi	0x0a, 6	; 10
    1c3e:	08 95       	ret
    1c40:	83 e0       	ldi	r24, 0x03	; 3
    1c42:	08 95       	ret
    1c44:	82 e0       	ldi	r24, 0x02	; 2
    1c46:	08 95       	ret

00001c48 <USART_u8ReceiveBufferSynch>:
    1c48:	8f 92       	push	r8
    1c4a:	9f 92       	push	r9
    1c4c:	af 92       	push	r10
    1c4e:	bf 92       	push	r11
    1c50:	cf 92       	push	r12
    1c52:	df 92       	push	r13
    1c54:	ef 92       	push	r14
    1c56:	ff 92       	push	r15
    1c58:	cf 93       	push	r28
    1c5a:	df 93       	push	r29
    1c5c:	00 97       	sbiw	r24, 0x00	; 0
    1c5e:	f9 f4       	brne	.+62     	; 0x1c9e <USART_u8ReceiveBufferSynch+0x56>
    1c60:	82 e0       	ldi	r24, 0x02	; 2
    1c62:	df 91       	pop	r29
    1c64:	cf 91       	pop	r28
    1c66:	ff 90       	pop	r15
    1c68:	ef 90       	pop	r14
    1c6a:	df 90       	pop	r13
    1c6c:	cf 90       	pop	r12
    1c6e:	bf 90       	pop	r11
    1c70:	af 90       	pop	r10
    1c72:	9f 90       	pop	r9
    1c74:	8f 90       	pop	r8
    1c76:	08 95       	ret
    1c78:	ce 01       	movw	r24, r28
    1c7a:	8c 0d       	add	r24, r12
    1c7c:	9d 1d       	adc	r25, r13
    1c7e:	0e 94 c1 0d 	call	0x1b82	; 0x1b82 <USART_u8ReceiveData>
    1c82:	81 11       	cpse	r24, r1
    1c84:	ee cf       	rjmp	.-36     	; 0x1c62 <USART_u8ReceiveBufferSynch+0x1a>
    1c86:	8f ef       	ldi	r24, 0xFF	; 255
    1c88:	c8 1a       	sub	r12, r24
    1c8a:	d8 0a       	sbc	r13, r24
    1c8c:	e8 0a       	sbc	r14, r24
    1c8e:	f8 0a       	sbc	r15, r24
    1c90:	c8 14       	cp	r12, r8
    1c92:	d9 04       	cpc	r13, r9
    1c94:	ea 04       	cpc	r14, r10
    1c96:	fb 04       	cpc	r15, r11
    1c98:	79 f7       	brne	.-34     	; 0x1c78 <USART_u8ReceiveBufferSynch+0x30>
    1c9a:	80 e0       	ldi	r24, 0x00	; 0
    1c9c:	e2 cf       	rjmp	.-60     	; 0x1c62 <USART_u8ReceiveBufferSynch+0x1a>
    1c9e:	4a 01       	movw	r8, r20
    1ca0:	5b 01       	movw	r10, r22
    1ca2:	ec 01       	movw	r28, r24
    1ca4:	c1 2c       	mov	r12, r1
    1ca6:	d1 2c       	mov	r13, r1
    1ca8:	76 01       	movw	r14, r12
    1caa:	f2 cf       	rjmp	.-28     	; 0x1c90 <USART_u8ReceiveBufferSynch+0x48>

00001cac <USART_u8ReceiveBufferAsynch>:
    1cac:	bc 01       	movw	r22, r24
    1cae:	80 91 1e 02 	lds	r24, 0x021E	; 0x80021e <USART_u8State>
    1cb2:	81 11       	cpse	r24, r1
    1cb4:	17 c0       	rjmp	.+46     	; 0x1ce4 <USART_u8ReceiveBufferAsynch+0x38>
    1cb6:	61 15       	cp	r22, r1
    1cb8:	71 05       	cpc	r23, r1
    1cba:	b1 f0       	breq	.+44     	; 0x1ce8 <USART_u8ReceiveBufferAsynch+0x3c>
    1cbc:	21 15       	cp	r18, r1
    1cbe:	31 05       	cpc	r19, r1
    1cc0:	99 f0       	breq	.+38     	; 0x1ce8 <USART_u8ReceiveBufferAsynch+0x3c>
    1cc2:	91 e0       	ldi	r25, 0x01	; 1
    1cc4:	90 93 1e 02 	sts	0x021E, r25	; 0x80021e <USART_u8State>
    1cc8:	70 93 24 02 	sts	0x0224, r23	; 0x800224 <USART_pu8ReceiveData+0x1>
    1ccc:	60 93 23 02 	sts	0x0223, r22	; 0x800223 <USART_pu8ReceiveData>
    1cd0:	30 93 20 02 	sts	0x0220, r19	; 0x800220 <USART_pvNotificationFunc+0x1>
    1cd4:	20 93 1f 02 	sts	0x021F, r18	; 0x80021f <USART_pvNotificationFunc>
    1cd8:	40 93 22 02 	sts	0x0222, r20	; 0x800222 <USART_u8BufferSize>
    1cdc:	10 92 21 02 	sts	0x0221, r1	; 0x800221 <USART_u8Index>
    1ce0:	57 9a       	sbi	0x0a, 7	; 10
    1ce2:	08 95       	ret
    1ce4:	83 e0       	ldi	r24, 0x03	; 3
    1ce6:	08 95       	ret
    1ce8:	82 e0       	ldi	r24, 0x02	; 2
    1cea:	08 95       	ret

00001cec <__vector_13>:
    1cec:	1f 92       	push	r1
    1cee:	0f 92       	push	r0
    1cf0:	0f b6       	in	r0, 0x3f	; 63
    1cf2:	0f 92       	push	r0
    1cf4:	11 24       	eor	r1, r1
    1cf6:	2f 93       	push	r18
    1cf8:	3f 93       	push	r19
    1cfa:	4f 93       	push	r20
    1cfc:	5f 93       	push	r21
    1cfe:	6f 93       	push	r22
    1d00:	7f 93       	push	r23
    1d02:	8f 93       	push	r24
    1d04:	9f 93       	push	r25
    1d06:	af 93       	push	r26
    1d08:	bf 93       	push	r27
    1d0a:	ef 93       	push	r30
    1d0c:	ff 93       	push	r31
    1d0e:	80 91 21 02 	lds	r24, 0x0221	; 0x800221 <USART_u8Index>
    1d12:	9c b1       	in	r25, 0x0c	; 12
    1d14:	e0 91 23 02 	lds	r30, 0x0223	; 0x800223 <USART_pu8ReceiveData>
    1d18:	f0 91 24 02 	lds	r31, 0x0224	; 0x800224 <USART_pu8ReceiveData+0x1>
    1d1c:	e8 0f       	add	r30, r24
    1d1e:	f1 1d       	adc	r31, r1
    1d20:	90 83       	st	Z, r25
    1d22:	8f 5f       	subi	r24, 0xFF	; 255
    1d24:	80 93 21 02 	sts	0x0221, r24	; 0x800221 <USART_u8Index>
    1d28:	90 91 22 02 	lds	r25, 0x0222	; 0x800222 <USART_u8BufferSize>
    1d2c:	89 13       	cpse	r24, r25
    1d2e:	0c c0       	rjmp	.+24     	; 0x1d48 <__vector_13+0x5c>
    1d30:	10 92 21 02 	sts	0x0221, r1	; 0x800221 <USART_u8Index>
    1d34:	10 92 1e 02 	sts	0x021E, r1	; 0x80021e <USART_u8State>
    1d38:	e0 91 1f 02 	lds	r30, 0x021F	; 0x80021f <USART_pvNotificationFunc>
    1d3c:	f0 91 20 02 	lds	r31, 0x0220	; 0x800220 <USART_pvNotificationFunc+0x1>
    1d40:	30 97       	sbiw	r30, 0x00	; 0
    1d42:	09 f0       	breq	.+2      	; 0x1d46 <__vector_13+0x5a>
    1d44:	09 95       	icall
    1d46:	57 98       	cbi	0x0a, 7	; 10
    1d48:	ff 91       	pop	r31
    1d4a:	ef 91       	pop	r30
    1d4c:	bf 91       	pop	r27
    1d4e:	af 91       	pop	r26
    1d50:	9f 91       	pop	r25
    1d52:	8f 91       	pop	r24
    1d54:	7f 91       	pop	r23
    1d56:	6f 91       	pop	r22
    1d58:	5f 91       	pop	r21
    1d5a:	4f 91       	pop	r20
    1d5c:	3f 91       	pop	r19
    1d5e:	2f 91       	pop	r18
    1d60:	0f 90       	pop	r0
    1d62:	0f be       	out	0x3f, r0	; 63
    1d64:	0f 90       	pop	r0
    1d66:	1f 90       	pop	r1
    1d68:	18 95       	reti

00001d6a <__vector_15>:
    1d6a:	1f 92       	push	r1
    1d6c:	0f 92       	push	r0
    1d6e:	0f b6       	in	r0, 0x3f	; 63
    1d70:	0f 92       	push	r0
    1d72:	11 24       	eor	r1, r1
    1d74:	2f 93       	push	r18
    1d76:	3f 93       	push	r19
    1d78:	4f 93       	push	r20
    1d7a:	5f 93       	push	r21
    1d7c:	6f 93       	push	r22
    1d7e:	7f 93       	push	r23
    1d80:	8f 93       	push	r24
    1d82:	9f 93       	push	r25
    1d84:	af 93       	push	r26
    1d86:	bf 93       	push	r27
    1d88:	ef 93       	push	r30
    1d8a:	ff 93       	push	r31
    1d8c:	e0 91 21 02 	lds	r30, 0x0221	; 0x800221 <USART_u8Index>
    1d90:	ef 5f       	subi	r30, 0xFF	; 255
    1d92:	e0 93 21 02 	sts	0x0221, r30	; 0x800221 <USART_u8Index>
    1d96:	80 91 25 02 	lds	r24, 0x0225	; 0x800225 <USART_pu8SendData>
    1d9a:	90 91 26 02 	lds	r25, 0x0226	; 0x800226 <USART_pu8SendData+0x1>
    1d9e:	e8 0f       	add	r30, r24
    1da0:	f9 2f       	mov	r31, r25
    1da2:	f1 1d       	adc	r31, r1
    1da4:	80 81       	ld	r24, Z
    1da6:	81 11       	cpse	r24, r1
    1da8:	1d c0       	rjmp	.+58     	; 0x1de4 <__vector_15+0x7a>
    1daa:	10 92 21 02 	sts	0x0221, r1	; 0x800221 <USART_u8Index>
    1dae:	10 92 1e 02 	sts	0x021E, r1	; 0x80021e <USART_u8State>
    1db2:	e0 91 1f 02 	lds	r30, 0x021F	; 0x80021f <USART_pvNotificationFunc>
    1db6:	f0 91 20 02 	lds	r31, 0x0220	; 0x800220 <USART_pvNotificationFunc+0x1>
    1dba:	30 97       	sbiw	r30, 0x00	; 0
    1dbc:	09 f0       	breq	.+2      	; 0x1dc0 <__vector_15+0x56>
    1dbe:	09 95       	icall
    1dc0:	56 98       	cbi	0x0a, 6	; 10
    1dc2:	ff 91       	pop	r31
    1dc4:	ef 91       	pop	r30
    1dc6:	bf 91       	pop	r27
    1dc8:	af 91       	pop	r26
    1dca:	9f 91       	pop	r25
    1dcc:	8f 91       	pop	r24
    1dce:	7f 91       	pop	r23
    1dd0:	6f 91       	pop	r22
    1dd2:	5f 91       	pop	r21
    1dd4:	4f 91       	pop	r20
    1dd6:	3f 91       	pop	r19
    1dd8:	2f 91       	pop	r18
    1dda:	0f 90       	pop	r0
    1ddc:	0f be       	out	0x3f, r0	; 63
    1dde:	0f 90       	pop	r0
    1de0:	1f 90       	pop	r1
    1de2:	18 95       	reti
    1de4:	8c b9       	out	0x0c, r24	; 12
    1de6:	ed cf       	rjmp	.-38     	; 0x1dc2 <__vector_15+0x58>

00001de8 <Display_Show>:
    1de8:	80 91 6c 00 	lds	r24, 0x006C	; 0x80006c <Flags>
    1dec:	82 fd       	sbrc	r24, 2
    1dee:	8a c0       	rjmp	.+276    	; 0x1f04 <Display_Show+0x11c>
    1df0:	84 60       	ori	r24, 0x04	; 4
    1df2:	80 93 6c 00 	sts	0x006C, r24	; 0x80006c <Flags>
    1df6:	0e 94 f9 01 	call	0x3f2	; 0x3f2 <CLCD_vClearScreen>
    1dfa:	8b e7       	ldi	r24, 0x7B	; 123
    1dfc:	91 e0       	ldi	r25, 0x01	; 1
    1dfe:	0e 94 56 02 	call	0x4ac	; 0x4ac <CLCD_vSendString>
    1e02:	61 e0       	ldi	r22, 0x01	; 1
    1e04:	82 e0       	ldi	r24, 0x02	; 2
    1e06:	0e 94 2f 03 	call	0x65e	; 0x65e <CLCD_vSetPosition>
    1e0a:	85 e8       	ldi	r24, 0x85	; 133
    1e0c:	91 e0       	ldi	r25, 0x01	; 1
    1e0e:	0e 94 56 02 	call	0x4ac	; 0x4ac <CLCD_vSendString>
    1e12:	6b e2       	ldi	r22, 0x2B	; 43
    1e14:	72 e0       	ldi	r23, 0x02	; 2
    1e16:	80 e7       	ldi	r24, 0x70	; 112
    1e18:	90 e0       	ldi	r25, 0x00	; 0
    1e1a:	0e 94 50 07 	call	0xea0	; 0xea0 <LM35_u8GetTemp>
    1e1e:	60 91 2b 02 	lds	r22, 0x022B	; 0x80022b <LM35_Temp>
    1e22:	70 e0       	ldi	r23, 0x00	; 0
    1e24:	90 e0       	ldi	r25, 0x00	; 0
    1e26:	80 e0       	ldi	r24, 0x00	; 0
    1e28:	0e 94 69 02 	call	0x4d2	; 0x4d2 <CLCD_vSendIntNumber>
    1e2c:	8f ea       	ldi	r24, 0xAF	; 175
    1e2e:	91 e0       	ldi	r25, 0x01	; 1
    1e30:	0e 94 56 02 	call	0x4ac	; 0x4ac <CLCD_vSendString>
    1e34:	88 e8       	ldi	r24, 0x88	; 136
    1e36:	91 e0       	ldi	r25, 0x01	; 1
    1e38:	0e 94 56 02 	call	0x4ac	; 0x4ac <CLCD_vSendString>
    1e3c:	6a e2       	ldi	r22, 0x2A	; 42
    1e3e:	72 e0       	ldi	r23, 0x02	; 2
    1e40:	8d e6       	ldi	r24, 0x6D	; 109
    1e42:	90 e0       	ldi	r25, 0x00	; 0
    1e44:	0e 94 0d 07 	call	0xe1a	; 0xe1a <LDR_u8GetLightPres>
    1e48:	60 91 2a 02 	lds	r22, 0x022A	; 0x80022a <LDR_Prec>
    1e4c:	70 e0       	ldi	r23, 0x00	; 0
    1e4e:	90 e0       	ldi	r25, 0x00	; 0
    1e50:	80 e0       	ldi	r24, 0x00	; 0
    1e52:	0e 94 69 02 	call	0x4d2	; 0x4d2 <CLCD_vSendIntNumber>
    1e56:	8b e8       	ldi	r24, 0x8B	; 139
    1e58:	91 e0       	ldi	r25, 0x01	; 1
    1e5a:	0e 94 56 02 	call	0x4ac	; 0x4ac <CLCD_vSendString>
    1e5e:	47 e2       	ldi	r20, 0x27	; 39
    1e60:	52 e0       	ldi	r21, 0x02	; 2
    1e62:	63 e0       	ldi	r22, 0x03	; 3
    1e64:	83 e0       	ldi	r24, 0x03	; 3
    1e66:	0e 94 0e 04 	call	0x81c	; 0x81c <DIO_enumReadPinVal>
    1e6a:	80 91 27 02 	lds	r24, 0x0227	; 0x800227 <Gas_Pin>
    1e6e:	69 e0       	ldi	r22, 0x09	; 9
    1e70:	81 30       	cpi	r24, 0x01	; 1
    1e72:	91 f1       	breq	.+100    	; 0x1ed8 <Display_Show+0xf0>
    1e74:	83 e0       	ldi	r24, 0x03	; 3
    1e76:	0e 94 2f 03 	call	0x65e	; 0x65e <CLCD_vSetPosition>
    1e7a:	8d e8       	ldi	r24, 0x8D	; 141
    1e7c:	91 e0       	ldi	r25, 0x01	; 1
    1e7e:	0e 94 56 02 	call	0x4ac	; 0x4ac <CLCD_vSendString>
    1e82:	80 e9       	ldi	r24, 0x90	; 144
    1e84:	91 e0       	ldi	r25, 0x01	; 1
    1e86:	0e 94 56 02 	call	0x4ac	; 0x4ac <CLCD_vSendString>
    1e8a:	80 91 2a 02 	lds	r24, 0x022A	; 0x80022a <LDR_Prec>
    1e8e:	41 e0       	ldi	r20, 0x01	; 1
    1e90:	82 33       	cpi	r24, 0x32	; 50
    1e92:	18 f0       	brcs	.+6      	; 0x1e9a <Display_Show+0xb2>
    1e94:	82 33       	cpi	r24, 0x32	; 50
    1e96:	29 f0       	breq	.+10     	; 0x1ea2 <Display_Show+0xba>
    1e98:	40 e0       	ldi	r20, 0x00	; 0
    1e9a:	60 e0       	ldi	r22, 0x00	; 0
    1e9c:	81 e0       	ldi	r24, 0x01	; 1
    1e9e:	0e 94 ce 03 	call	0x79c	; 0x79c <DIO_enumWritePinVal>
    1ea2:	48 e2       	ldi	r20, 0x28	; 40
    1ea4:	52 e0       	ldi	r21, 0x02	; 2
    1ea6:	62 e0       	ldi	r22, 0x02	; 2
    1ea8:	81 e0       	ldi	r24, 0x01	; 1
    1eaa:	0e 94 0e 04 	call	0x81c	; 0x81c <DIO_enumReadPinVal>
    1eae:	61 e0       	ldi	r22, 0x01	; 1
    1eb0:	83 e0       	ldi	r24, 0x03	; 3
    1eb2:	0e 94 2f 03 	call	0x65e	; 0x65e <CLCD_vSetPosition>
    1eb6:	84 e9       	ldi	r24, 0x94	; 148
    1eb8:	91 e0       	ldi	r25, 0x01	; 1
    1eba:	0e 94 56 02 	call	0x4ac	; 0x4ac <CLCD_vSendString>
    1ebe:	80 91 28 02 	lds	r24, 0x0228	; 0x800228 <Soil_Pin>
    1ec2:	81 11       	cpse	r24, r1
    1ec4:	15 c0       	rjmp	.+42     	; 0x1ef0 <Display_Show+0x108>
    1ec6:	41 e0       	ldi	r20, 0x01	; 1
    1ec8:	61 e0       	ldi	r22, 0x01	; 1
    1eca:	81 e0       	ldi	r24, 0x01	; 1
    1ecc:	0e 94 ce 03 	call	0x79c	; 0x79c <DIO_enumWritePinVal>
    1ed0:	80 e9       	ldi	r24, 0x90	; 144
    1ed2:	91 e0       	ldi	r25, 0x01	; 1
    1ed4:	0c 94 56 02 	jmp	0x4ac	; 0x4ac <CLCD_vSendString>
    1ed8:	83 e0       	ldi	r24, 0x03	; 3
    1eda:	0e 94 2f 03 	call	0x65e	; 0x65e <CLCD_vSetPosition>
    1ede:	8d e8       	ldi	r24, 0x8D	; 141
    1ee0:	91 e0       	ldi	r25, 0x01	; 1
    1ee2:	0e 94 56 02 	call	0x4ac	; 0x4ac <CLCD_vSendString>
    1ee6:	82 e9       	ldi	r24, 0x92	; 146
    1ee8:	91 e0       	ldi	r25, 0x01	; 1
    1eea:	0e 94 56 02 	call	0x4ac	; 0x4ac <CLCD_vSendString>
    1eee:	d9 cf       	rjmp	.-78     	; 0x1ea2 <Display_Show+0xba>
    1ef0:	81 30       	cpi	r24, 0x01	; 1
    1ef2:	09 f0       	breq	.+2      	; 0x1ef6 <Display_Show+0x10e>
    1ef4:	72 c0       	rjmp	.+228    	; 0x1fda <Display_Show+0x1f2>
    1ef6:	40 e0       	ldi	r20, 0x00	; 0
    1ef8:	61 e0       	ldi	r22, 0x01	; 1
    1efa:	0e 94 ce 03 	call	0x79c	; 0x79c <DIO_enumWritePinVal>
    1efe:	82 e9       	ldi	r24, 0x92	; 146
    1f00:	91 e0       	ldi	r25, 0x01	; 1
    1f02:	e8 cf       	rjmp	.-48     	; 0x1ed4 <Display_Show+0xec>
    1f04:	63 e0       	ldi	r22, 0x03	; 3
    1f06:	82 e0       	ldi	r24, 0x02	; 2
    1f08:	0e 94 2f 03 	call	0x65e	; 0x65e <CLCD_vSetPosition>
    1f0c:	6b e2       	ldi	r22, 0x2B	; 43
    1f0e:	72 e0       	ldi	r23, 0x02	; 2
    1f10:	80 e7       	ldi	r24, 0x70	; 112
    1f12:	90 e0       	ldi	r25, 0x00	; 0
    1f14:	0e 94 50 07 	call	0xea0	; 0xea0 <LM35_u8GetTemp>
    1f18:	60 91 2b 02 	lds	r22, 0x022B	; 0x80022b <LM35_Temp>
    1f1c:	70 e0       	ldi	r23, 0x00	; 0
    1f1e:	90 e0       	ldi	r25, 0x00	; 0
    1f20:	80 e0       	ldi	r24, 0x00	; 0
    1f22:	0e 94 69 02 	call	0x4d2	; 0x4d2 <CLCD_vSendIntNumber>
    1f26:	6b e0       	ldi	r22, 0x0B	; 11
    1f28:	82 e0       	ldi	r24, 0x02	; 2
    1f2a:	0e 94 2f 03 	call	0x65e	; 0x65e <CLCD_vSetPosition>
    1f2e:	6a e2       	ldi	r22, 0x2A	; 42
    1f30:	72 e0       	ldi	r23, 0x02	; 2
    1f32:	8d e6       	ldi	r24, 0x6D	; 109
    1f34:	90 e0       	ldi	r25, 0x00	; 0
    1f36:	0e 94 0d 07 	call	0xe1a	; 0xe1a <LDR_u8GetLightPres>
    1f3a:	60 91 2a 02 	lds	r22, 0x022A	; 0x80022a <LDR_Prec>
    1f3e:	70 e0       	ldi	r23, 0x00	; 0
    1f40:	90 e0       	ldi	r25, 0x00	; 0
    1f42:	80 e0       	ldi	r24, 0x00	; 0
    1f44:	0e 94 69 02 	call	0x4d2	; 0x4d2 <CLCD_vSendIntNumber>
    1f48:	8b e8       	ldi	r24, 0x8B	; 139
    1f4a:	91 e0       	ldi	r25, 0x01	; 1
    1f4c:	0e 94 56 02 	call	0x4ac	; 0x4ac <CLCD_vSendString>
    1f50:	47 e2       	ldi	r20, 0x27	; 39
    1f52:	52 e0       	ldi	r21, 0x02	; 2
    1f54:	63 e0       	ldi	r22, 0x03	; 3
    1f56:	83 e0       	ldi	r24, 0x03	; 3
    1f58:	0e 94 0e 04 	call	0x81c	; 0x81c <DIO_enumReadPinVal>
    1f5c:	80 91 27 02 	lds	r24, 0x0227	; 0x800227 <Gas_Pin>
    1f60:	6b e0       	ldi	r22, 0x0B	; 11
    1f62:	81 30       	cpi	r24, 0x01	; 1
    1f64:	39 f1       	breq	.+78     	; 0x1fb4 <Display_Show+0x1cc>
    1f66:	83 e0       	ldi	r24, 0x03	; 3
    1f68:	0e 94 2f 03 	call	0x65e	; 0x65e <CLCD_vSetPosition>
    1f6c:	80 e9       	ldi	r24, 0x90	; 144
    1f6e:	91 e0       	ldi	r25, 0x01	; 1
    1f70:	0e 94 56 02 	call	0x4ac	; 0x4ac <CLCD_vSendString>
    1f74:	80 91 2a 02 	lds	r24, 0x022A	; 0x80022a <LDR_Prec>
    1f78:	41 e0       	ldi	r20, 0x01	; 1
    1f7a:	82 33       	cpi	r24, 0x32	; 50
    1f7c:	18 f0       	brcs	.+6      	; 0x1f84 <Display_Show+0x19c>
    1f7e:	82 33       	cpi	r24, 0x32	; 50
    1f80:	29 f0       	breq	.+10     	; 0x1f8c <Display_Show+0x1a4>
    1f82:	40 e0       	ldi	r20, 0x00	; 0
    1f84:	60 e0       	ldi	r22, 0x00	; 0
    1f86:	81 e0       	ldi	r24, 0x01	; 1
    1f88:	0e 94 ce 03 	call	0x79c	; 0x79c <DIO_enumWritePinVal>
    1f8c:	48 e2       	ldi	r20, 0x28	; 40
    1f8e:	52 e0       	ldi	r21, 0x02	; 2
    1f90:	62 e0       	ldi	r22, 0x02	; 2
    1f92:	81 e0       	ldi	r24, 0x01	; 1
    1f94:	0e 94 0e 04 	call	0x81c	; 0x81c <DIO_enumReadPinVal>
    1f98:	80 91 28 02 	lds	r24, 0x0228	; 0x800228 <Soil_Pin>
    1f9c:	81 11       	cpse	r24, r1
    1f9e:	12 c0       	rjmp	.+36     	; 0x1fc4 <Display_Show+0x1dc>
    1fa0:	41 e0       	ldi	r20, 0x01	; 1
    1fa2:	61 e0       	ldi	r22, 0x01	; 1
    1fa4:	81 e0       	ldi	r24, 0x01	; 1
    1fa6:	0e 94 ce 03 	call	0x79c	; 0x79c <DIO_enumWritePinVal>
    1faa:	63 e0       	ldi	r22, 0x03	; 3
    1fac:	83 e0       	ldi	r24, 0x03	; 3
    1fae:	0e 94 2f 03 	call	0x65e	; 0x65e <CLCD_vSetPosition>
    1fb2:	8e cf       	rjmp	.-228    	; 0x1ed0 <Display_Show+0xe8>
    1fb4:	83 e0       	ldi	r24, 0x03	; 3
    1fb6:	0e 94 2f 03 	call	0x65e	; 0x65e <CLCD_vSetPosition>
    1fba:	82 e9       	ldi	r24, 0x92	; 146
    1fbc:	91 e0       	ldi	r25, 0x01	; 1
    1fbe:	0e 94 56 02 	call	0x4ac	; 0x4ac <CLCD_vSendString>
    1fc2:	e4 cf       	rjmp	.-56     	; 0x1f8c <Display_Show+0x1a4>
    1fc4:	81 30       	cpi	r24, 0x01	; 1
    1fc6:	49 f4       	brne	.+18     	; 0x1fda <Display_Show+0x1f2>
    1fc8:	40 e0       	ldi	r20, 0x00	; 0
    1fca:	61 e0       	ldi	r22, 0x01	; 1
    1fcc:	0e 94 ce 03 	call	0x79c	; 0x79c <DIO_enumWritePinVal>
    1fd0:	63 e0       	ldi	r22, 0x03	; 3
    1fd2:	83 e0       	ldi	r24, 0x03	; 3
    1fd4:	0e 94 2f 03 	call	0x65e	; 0x65e <CLCD_vSetPosition>
    1fd8:	92 cf       	rjmp	.-220    	; 0x1efe <Display_Show+0x116>
    1fda:	08 95       	ret

00001fdc <Garden_vDoor>:
    1fdc:	8d e0       	ldi	r24, 0x0D	; 13
    1fde:	0e 94 9c 0d 	call	0x1b38	; 0x1b38 <USART_u8SendData>
    1fe2:	87 e9       	ldi	r24, 0x97	; 151
    1fe4:	91 e0       	ldi	r25, 0x01	; 1
    1fe6:	0e 94 eb 0d 	call	0x1bd6	; 0x1bd6 <USART_u8SendStringSynch>
    1fea:	8d e0       	ldi	r24, 0x0D	; 13
    1fec:	0e 94 9c 0d 	call	0x1b38	; 0x1b38 <USART_u8SendData>
    1ff0:	86 ea       	ldi	r24, 0xA6	; 166
    1ff2:	91 e0       	ldi	r25, 0x01	; 1
    1ff4:	0e 94 eb 0d 	call	0x1bd6	; 0x1bd6 <USART_u8SendStringSynch>
    1ff8:	84 eb       	ldi	r24, 0xB4	; 180
    1ffa:	91 e0       	ldi	r25, 0x01	; 1
    1ffc:	0e 94 eb 0d 	call	0x1bd6	; 0x1bd6 <USART_u8SendStringSynch>
    2000:	8d e0       	ldi	r24, 0x0D	; 13
    2002:	0e 94 9c 0d 	call	0x1b38	; 0x1b38 <USART_u8SendData>
    2006:	0e 94 f4 0e 	call	0x1de8	; 0x1de8 <Display_Show>
    200a:	81 e4       	ldi	r24, 0x41	; 65
    200c:	92 e0       	ldi	r25, 0x02	; 2
    200e:	0e 94 c1 0d 	call	0x1b82	; 0x1b82 <USART_u8ReceiveData>
    2012:	80 93 68 00 	sts	0x0068, r24	; 0x800068 <Error_State>
    2016:	80 91 68 00 	lds	r24, 0x0068	; 0x800068 <Error_State>
    201a:	81 11       	cpse	r24, r1
    201c:	1f c0       	rjmp	.+62     	; 0x205c <Garden_vDoor+0x80>
    201e:	80 91 41 02 	lds	r24, 0x0241	; 0x800241 <KPD_Press>
    2022:	81 33       	cpi	r24, 0x31	; 49
    2024:	79 f0       	breq	.+30     	; 0x2044 <Garden_vDoor+0x68>
    2026:	82 33       	cpi	r24, 0x32	; 50
    2028:	b9 f0       	breq	.+46     	; 0x2058 <Garden_vDoor+0x7c>
    202a:	88 30       	cpi	r24, 0x08	; 8
    202c:	81 f4       	brne	.+32     	; 0x204e <Garden_vDoor+0x72>
    202e:	8d e0       	ldi	r24, 0x0D	; 13
    2030:	0e 94 9c 0d 	call	0x1b38	; 0x1b38 <USART_u8SendData>
    2034:	8c eb       	ldi	r24, 0xBC	; 188
    2036:	91 e0       	ldi	r25, 0x01	; 1
    2038:	0e 94 eb 0d 	call	0x1bd6	; 0x1bd6 <USART_u8SendStringSynch>
    203c:	8d e0       	ldi	r24, 0x0D	; 13
    203e:	0e 94 9c 0d 	call	0x1b38	; 0x1b38 <USART_u8SendData>
    2042:	05 c0       	rjmp	.+10     	; 0x204e <Garden_vDoor+0x72>
    2044:	80 e0       	ldi	r24, 0x00	; 0
    2046:	0e 94 15 0b 	call	0x162a	; 0x162a <SM_vTimer1Degree>
    204a:	10 92 29 02 	sts	0x0229, r1	; 0x800229 <Error_Time_Out>
    204e:	80 91 41 02 	lds	r24, 0x0241	; 0x800241 <KPD_Press>
    2052:	88 30       	cpi	r24, 0x08	; 8
    2054:	c1 f6       	brne	.-80     	; 0x2006 <Garden_vDoor+0x2a>
    2056:	08 95       	ret
    2058:	8a e5       	ldi	r24, 0x5A	; 90
    205a:	f5 cf       	rjmp	.-22     	; 0x2046 <Garden_vDoor+0x6a>
    205c:	80 91 68 00 	lds	r24, 0x0068	; 0x800068 <Error_State>
    2060:	84 30       	cpi	r24, 0x04	; 4
    2062:	a9 f7       	brne	.-22     	; 0x204e <Garden_vDoor+0x72>
    2064:	80 91 29 02 	lds	r24, 0x0229	; 0x800229 <Error_Time_Out>
    2068:	8f 5f       	subi	r24, 0xFF	; 255
    206a:	80 93 29 02 	sts	0x0229, r24	; 0x800229 <Error_Time_Out>
    206e:	ef cf       	rjmp	.-34     	; 0x204e <Garden_vDoor+0x72>

00002070 <Enter_Sys>:
    2070:	8d e0       	ldi	r24, 0x0D	; 13
    2072:	0e 94 9c 0d 	call	0x1b38	; 0x1b38 <USART_u8SendData>
    2076:	8c eb       	ldi	r24, 0xBC	; 188
    2078:	91 e0       	ldi	r25, 0x01	; 1
    207a:	0e 94 eb 0d 	call	0x1bd6	; 0x1bd6 <USART_u8SendStringSynch>
    207e:	8d e0       	ldi	r24, 0x0D	; 13
    2080:	0e 94 9c 0d 	call	0x1b38	; 0x1b38 <USART_u8SendData>
    2084:	0e 94 f4 0e 	call	0x1de8	; 0x1de8 <Display_Show>
    2088:	81 e4       	ldi	r24, 0x41	; 65
    208a:	92 e0       	ldi	r25, 0x02	; 2
    208c:	0e 94 c1 0d 	call	0x1b82	; 0x1b82 <USART_u8ReceiveData>
    2090:	80 93 68 00 	sts	0x0068, r24	; 0x800068 <Error_State>
    2094:	80 91 68 00 	lds	r24, 0x0068	; 0x800068 <Error_State>
    2098:	81 11       	cpse	r24, r1
    209a:	0b c0       	rjmp	.+22     	; 0x20b2 <Enter_Sys+0x42>
    209c:	80 91 41 02 	lds	r24, 0x0241	; 0x800241 <KPD_Press>
    20a0:	81 33       	cpi	r24, 0x31	; 49
    20a2:	11 f4       	brne	.+4      	; 0x20a8 <Enter_Sys+0x38>
    20a4:	0e 94 ee 0f 	call	0x1fdc	; 0x1fdc <Garden_vDoor>
    20a8:	80 91 41 02 	lds	r24, 0x0241	; 0x800241 <KPD_Press>
    20ac:	88 30       	cpi	r24, 0x08	; 8
    20ae:	51 f7       	brne	.-44     	; 0x2084 <Enter_Sys+0x14>
    20b0:	08 95       	ret
    20b2:	80 91 68 00 	lds	r24, 0x0068	; 0x800068 <Error_State>
    20b6:	84 30       	cpi	r24, 0x04	; 4
    20b8:	b9 f7       	brne	.-18     	; 0x20a8 <Enter_Sys+0x38>
    20ba:	80 91 29 02 	lds	r24, 0x0229	; 0x800229 <Error_Time_Out>
    20be:	8f 5f       	subi	r24, 0xFF	; 255
    20c0:	80 93 29 02 	sts	0x0229, r24	; 0x800229 <Error_Time_Out>
    20c4:	f1 cf       	rjmp	.-30     	; 0x20a8 <Enter_Sys+0x38>

000020c6 <main>:
    20c6:	0e 94 35 0b 	call	0x166a	; 0x166a <System_vInit>
    20ca:	c4 e1       	ldi	r28, 0x14	; 20
    20cc:	d0 e0       	ldi	r29, 0x00	; 0
    20ce:	80 91 6c 00 	lds	r24, 0x006C	; 0x80006c <Flags>
    20d2:	80 ff       	sbrs	r24, 0
    20d4:	ff cf       	rjmp	.-2      	; 0x20d4 <main+0xe>
    20d6:	10 92 29 02 	sts	0x0229, r1	; 0x800229 <Error_Time_Out>
    20da:	82 60       	ori	r24, 0x02	; 2
    20dc:	80 93 6c 00 	sts	0x006C, r24	; 0x80006c <Flags>
    20e0:	84 ec       	ldi	r24, 0xC4	; 196
    20e2:	91 e0       	ldi	r25, 0x01	; 1
    20e4:	0e 94 eb 0d 	call	0x1bd6	; 0x1bd6 <USART_u8SendStringSynch>
    20e8:	81 e4       	ldi	r24, 0x41	; 65
    20ea:	92 e0       	ldi	r25, 0x02	; 2
    20ec:	0e 94 c1 0d 	call	0x1b82	; 0x1b82 <USART_u8ReceiveData>
    20f0:	80 93 68 00 	sts	0x0068, r24	; 0x800068 <Error_State>
    20f4:	80 91 68 00 	lds	r24, 0x0068	; 0x800068 <Error_State>
    20f8:	81 11       	cpse	r24, r1
    20fa:	f6 cf       	rjmp	.-20     	; 0x20e8 <main+0x22>
    20fc:	80 91 41 02 	lds	r24, 0x0241	; 0x800241 <KPD_Press>
    2100:	8d 30       	cpi	r24, 0x0D	; 13
    2102:	91 f7       	brne	.-28     	; 0x20e8 <main+0x22>
    2104:	0e 94 bf 0a 	call	0x157e	; 0x157e <Sign_In>
    2108:	0e 94 f9 01 	call	0x3f2	; 0x3f2 <CLCD_vClearScreen>
    210c:	67 e0       	ldi	r22, 0x07	; 7
    210e:	82 e0       	ldi	r24, 0x02	; 2
    2110:	0e 94 2f 03 	call	0x65e	; 0x65e <CLCD_vSetPosition>
    2114:	8f ed       	ldi	r24, 0xDF	; 223
    2116:	91 e0       	ldi	r25, 0x01	; 1
    2118:	0e 94 56 02 	call	0x4ac	; 0x4ac <CLCD_vSendString>
    211c:	80 91 0d 02 	lds	r24, 0x020D	; 0x80020d <UserName_Length>
    2120:	be 01       	movw	r22, r28
    2122:	68 1b       	sub	r22, r24
    2124:	71 09       	sbc	r23, r1
    2126:	77 ff       	sbrs	r23, 7
    2128:	02 c0       	rjmp	.+4      	; 0x212e <main+0x68>
    212a:	6f 5f       	subi	r22, 0xFF	; 255
    212c:	7f 4f       	sbci	r23, 0xFF	; 255
    212e:	75 95       	asr	r23
    2130:	67 95       	ror	r22
    2132:	6f 5f       	subi	r22, 0xFF	; 255
    2134:	83 e0       	ldi	r24, 0x03	; 3
    2136:	0e 94 2f 03 	call	0x65e	; 0x65e <CLCD_vSetPosition>
    213a:	82 e4       	ldi	r24, 0x42	; 66
    213c:	92 e0       	ldi	r25, 0x02	; 2
    213e:	0e 94 56 02 	call	0x4ac	; 0x4ac <CLCD_vSendString>
    2142:	8f ed       	ldi	r24, 0xDF	; 223
    2144:	91 e0       	ldi	r25, 0x01	; 1
    2146:	0e 94 eb 0d 	call	0x1bd6	; 0x1bd6 <USART_u8SendStringSynch>
    214a:	82 e4       	ldi	r24, 0x42	; 66
    214c:	92 e0       	ldi	r25, 0x02	; 2
    214e:	0e 94 eb 0d 	call	0x1bd6	; 0x1bd6 <USART_u8SendStringSynch>
    2152:	2f ef       	ldi	r18, 0xFF	; 255
    2154:	89 e6       	ldi	r24, 0x69	; 105
    2156:	98 e1       	ldi	r25, 0x18	; 24
    2158:	21 50       	subi	r18, 0x01	; 1
    215a:	80 40       	sbci	r24, 0x00	; 0
    215c:	90 40       	sbci	r25, 0x00	; 0
    215e:	e1 f7       	brne	.-8      	; 0x2158 <main+0x92>
    2160:	00 c0       	rjmp	.+0      	; 0x2162 <main+0x9c>
    2162:	00 00       	nop
    2164:	80 91 6c 00 	lds	r24, 0x006C	; 0x80006c <Flags>
    2168:	8e 7f       	andi	r24, 0xFE	; 254
    216a:	80 93 6c 00 	sts	0x006C, r24	; 0x80006c <Flags>
    216e:	0e 94 f4 0e 	call	0x1de8	; 0x1de8 <Display_Show>
    2172:	0e 94 38 10 	call	0x2070	; 0x2070 <Enter_Sys>
    2176:	ab cf       	rjmp	.-170    	; 0x20ce <main+0x8>

00002178 <ISR_EXTI0_INT>:
    2178:	88 ee       	ldi	r24, 0xE8	; 232
    217a:	91 e0       	ldi	r25, 0x01	; 1
    217c:	0e 94 eb 0d 	call	0x1bd6	; 0x1bd6 <USART_u8SendStringSynch>
    2180:	8d e0       	ldi	r24, 0x0D	; 13
    2182:	0e 94 9c 0d 	call	0x1b38	; 0x1b38 <USART_u8SendData>
    2186:	0c 94 ee 0f 	jmp	0x1fdc	; 0x1fdc <Garden_vDoor>

0000218a <ISR_EXTI1_INT>:
    218a:	40 e0       	ldi	r20, 0x00	; 0
    218c:	60 e0       	ldi	r22, 0x00	; 0
    218e:	81 e0       	ldi	r24, 0x01	; 1
    2190:	0c 94 ce 03 	jmp	0x79c	; 0x79c <DIO_enumWritePinVal>

00002194 <__udivmodhi4>:
    2194:	aa 1b       	sub	r26, r26
    2196:	bb 1b       	sub	r27, r27
    2198:	51 e1       	ldi	r21, 0x11	; 17
    219a:	07 c0       	rjmp	.+14     	; 0x21aa <__udivmodhi4_ep>

0000219c <__udivmodhi4_loop>:
    219c:	aa 1f       	adc	r26, r26
    219e:	bb 1f       	adc	r27, r27
    21a0:	a6 17       	cp	r26, r22
    21a2:	b7 07       	cpc	r27, r23
    21a4:	10 f0       	brcs	.+4      	; 0x21aa <__udivmodhi4_ep>
    21a6:	a6 1b       	sub	r26, r22
    21a8:	b7 0b       	sbc	r27, r23

000021aa <__udivmodhi4_ep>:
    21aa:	88 1f       	adc	r24, r24
    21ac:	99 1f       	adc	r25, r25
    21ae:	5a 95       	dec	r21
    21b0:	a9 f7       	brne	.-22     	; 0x219c <__udivmodhi4_loop>
    21b2:	80 95       	com	r24
    21b4:	90 95       	com	r25
    21b6:	bc 01       	movw	r22, r24
    21b8:	cd 01       	movw	r24, r26
    21ba:	08 95       	ret

000021bc <__udivmodsi4>:
    21bc:	a1 e2       	ldi	r26, 0x21	; 33
    21be:	1a 2e       	mov	r1, r26
    21c0:	aa 1b       	sub	r26, r26
    21c2:	bb 1b       	sub	r27, r27
    21c4:	fd 01       	movw	r30, r26
    21c6:	0d c0       	rjmp	.+26     	; 0x21e2 <__udivmodsi4_ep>

000021c8 <__udivmodsi4_loop>:
    21c8:	aa 1f       	adc	r26, r26
    21ca:	bb 1f       	adc	r27, r27
    21cc:	ee 1f       	adc	r30, r30
    21ce:	ff 1f       	adc	r31, r31
    21d0:	a2 17       	cp	r26, r18
    21d2:	b3 07       	cpc	r27, r19
    21d4:	e4 07       	cpc	r30, r20
    21d6:	f5 07       	cpc	r31, r21
    21d8:	20 f0       	brcs	.+8      	; 0x21e2 <__udivmodsi4_ep>
    21da:	a2 1b       	sub	r26, r18
    21dc:	b3 0b       	sbc	r27, r19
    21de:	e4 0b       	sbc	r30, r20
    21e0:	f5 0b       	sbc	r31, r21

000021e2 <__udivmodsi4_ep>:
    21e2:	66 1f       	adc	r22, r22
    21e4:	77 1f       	adc	r23, r23
    21e6:	88 1f       	adc	r24, r24
    21e8:	99 1f       	adc	r25, r25
    21ea:	1a 94       	dec	r1
    21ec:	69 f7       	brne	.-38     	; 0x21c8 <__udivmodsi4_loop>
    21ee:	60 95       	com	r22
    21f0:	70 95       	com	r23
    21f2:	80 95       	com	r24
    21f4:	90 95       	com	r25
    21f6:	9b 01       	movw	r18, r22
    21f8:	ac 01       	movw	r20, r24
    21fa:	bd 01       	movw	r22, r26
    21fc:	cf 01       	movw	r24, r30
    21fe:	08 95       	ret

00002200 <__divmodsi4>:
    2200:	05 2e       	mov	r0, r21
    2202:	97 fb       	bst	r25, 7
    2204:	1e f4       	brtc	.+6      	; 0x220c <__divmodsi4+0xc>
    2206:	00 94       	com	r0
    2208:	0e 94 17 11 	call	0x222e	; 0x222e <__negsi2>
    220c:	57 fd       	sbrc	r21, 7
    220e:	07 d0       	rcall	.+14     	; 0x221e <__divmodsi4_neg2>
    2210:	0e 94 de 10 	call	0x21bc	; 0x21bc <__udivmodsi4>
    2214:	07 fc       	sbrc	r0, 7
    2216:	03 d0       	rcall	.+6      	; 0x221e <__divmodsi4_neg2>
    2218:	4e f4       	brtc	.+18     	; 0x222c <__divmodsi4_exit>
    221a:	0c 94 17 11 	jmp	0x222e	; 0x222e <__negsi2>

0000221e <__divmodsi4_neg2>:
    221e:	50 95       	com	r21
    2220:	40 95       	com	r20
    2222:	30 95       	com	r19
    2224:	21 95       	neg	r18
    2226:	3f 4f       	sbci	r19, 0xFF	; 255
    2228:	4f 4f       	sbci	r20, 0xFF	; 255
    222a:	5f 4f       	sbci	r21, 0xFF	; 255

0000222c <__divmodsi4_exit>:
    222c:	08 95       	ret

0000222e <__negsi2>:
    222e:	90 95       	com	r25
    2230:	80 95       	com	r24
    2232:	70 95       	com	r23
    2234:	61 95       	neg	r22
    2236:	7f 4f       	sbci	r23, 0xFF	; 255
    2238:	8f 4f       	sbci	r24, 0xFF	; 255
    223a:	9f 4f       	sbci	r25, 0xFF	; 255
    223c:	08 95       	ret

0000223e <__usmulhisi3>:
    223e:	0e 94 3d 11 	call	0x227a	; 0x227a <__umulhisi3>

00002242 <__usmulhisi3_tail>:
    2242:	b7 ff       	sbrs	r27, 7
    2244:	08 95       	ret
    2246:	82 1b       	sub	r24, r18
    2248:	93 0b       	sbc	r25, r19
    224a:	08 95       	ret

0000224c <__muluhisi3>:
    224c:	0e 94 3d 11 	call	0x227a	; 0x227a <__umulhisi3>
    2250:	a5 9f       	mul	r26, r21
    2252:	90 0d       	add	r25, r0
    2254:	b4 9f       	mul	r27, r20
    2256:	90 0d       	add	r25, r0
    2258:	a4 9f       	mul	r26, r20
    225a:	80 0d       	add	r24, r0
    225c:	91 1d       	adc	r25, r1
    225e:	11 24       	eor	r1, r1
    2260:	08 95       	ret

00002262 <__cmpdi2_s8>:
    2262:	00 24       	eor	r0, r0
    2264:	a7 fd       	sbrc	r26, 7
    2266:	00 94       	com	r0
    2268:	2a 17       	cp	r18, r26
    226a:	30 05       	cpc	r19, r0
    226c:	40 05       	cpc	r20, r0
    226e:	50 05       	cpc	r21, r0
    2270:	60 05       	cpc	r22, r0
    2272:	70 05       	cpc	r23, r0
    2274:	80 05       	cpc	r24, r0
    2276:	90 05       	cpc	r25, r0
    2278:	08 95       	ret

0000227a <__umulhisi3>:
    227a:	a2 9f       	mul	r26, r18
    227c:	b0 01       	movw	r22, r0
    227e:	b3 9f       	mul	r27, r19
    2280:	c0 01       	movw	r24, r0
    2282:	a3 9f       	mul	r26, r19
    2284:	70 0d       	add	r23, r0
    2286:	81 1d       	adc	r24, r1
    2288:	11 24       	eor	r1, r1
    228a:	91 1d       	adc	r25, r1
    228c:	b2 9f       	mul	r27, r18
    228e:	70 0d       	add	r23, r0
    2290:	81 1d       	adc	r24, r1
    2292:	11 24       	eor	r1, r1
    2294:	91 1d       	adc	r25, r1
    2296:	08 95       	ret

00002298 <__subsf3>:
    2298:	50 58       	subi	r21, 0x80	; 128

0000229a <__addsf3>:
    229a:	bb 27       	eor	r27, r27
    229c:	aa 27       	eor	r26, r26
    229e:	0e 94 64 11 	call	0x22c8	; 0x22c8 <__addsf3x>
    22a2:	0c 94 b8 12 	jmp	0x2570	; 0x2570 <__fp_round>
    22a6:	0e 94 aa 12 	call	0x2554	; 0x2554 <__fp_pscA>
    22aa:	38 f0       	brcs	.+14     	; 0x22ba <__addsf3+0x20>
    22ac:	0e 94 b1 12 	call	0x2562	; 0x2562 <__fp_pscB>
    22b0:	20 f0       	brcs	.+8      	; 0x22ba <__addsf3+0x20>
    22b2:	39 f4       	brne	.+14     	; 0x22c2 <__addsf3+0x28>
    22b4:	9f 3f       	cpi	r25, 0xFF	; 255
    22b6:	19 f4       	brne	.+6      	; 0x22be <__addsf3+0x24>
    22b8:	26 f4       	brtc	.+8      	; 0x22c2 <__addsf3+0x28>
    22ba:	0c 94 97 12 	jmp	0x252e	; 0x252e <__fp_nan>
    22be:	0e f4       	brtc	.+2      	; 0x22c2 <__addsf3+0x28>
    22c0:	e0 95       	com	r30
    22c2:	e7 fb       	bst	r30, 7
    22c4:	0c 94 91 12 	jmp	0x2522	; 0x2522 <__fp_inf>

000022c8 <__addsf3x>:
    22c8:	e9 2f       	mov	r30, r25
    22ca:	0e 94 c9 12 	call	0x2592	; 0x2592 <__fp_split3>
    22ce:	58 f3       	brcs	.-42     	; 0x22a6 <__addsf3+0xc>
    22d0:	ba 17       	cp	r27, r26
    22d2:	62 07       	cpc	r22, r18
    22d4:	73 07       	cpc	r23, r19
    22d6:	84 07       	cpc	r24, r20
    22d8:	95 07       	cpc	r25, r21
    22da:	20 f0       	brcs	.+8      	; 0x22e4 <__addsf3x+0x1c>
    22dc:	79 f4       	brne	.+30     	; 0x22fc <__addsf3x+0x34>
    22de:	a6 f5       	brtc	.+104    	; 0x2348 <__addsf3x+0x80>
    22e0:	0c 94 eb 12 	jmp	0x25d6	; 0x25d6 <__fp_zero>
    22e4:	0e f4       	brtc	.+2      	; 0x22e8 <__addsf3x+0x20>
    22e6:	e0 95       	com	r30
    22e8:	0b 2e       	mov	r0, r27
    22ea:	ba 2f       	mov	r27, r26
    22ec:	a0 2d       	mov	r26, r0
    22ee:	0b 01       	movw	r0, r22
    22f0:	b9 01       	movw	r22, r18
    22f2:	90 01       	movw	r18, r0
    22f4:	0c 01       	movw	r0, r24
    22f6:	ca 01       	movw	r24, r20
    22f8:	a0 01       	movw	r20, r0
    22fa:	11 24       	eor	r1, r1
    22fc:	ff 27       	eor	r31, r31
    22fe:	59 1b       	sub	r21, r25
    2300:	99 f0       	breq	.+38     	; 0x2328 <__addsf3x+0x60>
    2302:	59 3f       	cpi	r21, 0xF9	; 249
    2304:	50 f4       	brcc	.+20     	; 0x231a <__addsf3x+0x52>
    2306:	50 3e       	cpi	r21, 0xE0	; 224
    2308:	68 f1       	brcs	.+90     	; 0x2364 <__addsf3x+0x9c>
    230a:	1a 16       	cp	r1, r26
    230c:	f0 40       	sbci	r31, 0x00	; 0
    230e:	a2 2f       	mov	r26, r18
    2310:	23 2f       	mov	r18, r19
    2312:	34 2f       	mov	r19, r20
    2314:	44 27       	eor	r20, r20
    2316:	58 5f       	subi	r21, 0xF8	; 248
    2318:	f3 cf       	rjmp	.-26     	; 0x2300 <__addsf3x+0x38>
    231a:	46 95       	lsr	r20
    231c:	37 95       	ror	r19
    231e:	27 95       	ror	r18
    2320:	a7 95       	ror	r26
    2322:	f0 40       	sbci	r31, 0x00	; 0
    2324:	53 95       	inc	r21
    2326:	c9 f7       	brne	.-14     	; 0x231a <__addsf3x+0x52>
    2328:	7e f4       	brtc	.+30     	; 0x2348 <__addsf3x+0x80>
    232a:	1f 16       	cp	r1, r31
    232c:	ba 0b       	sbc	r27, r26
    232e:	62 0b       	sbc	r22, r18
    2330:	73 0b       	sbc	r23, r19
    2332:	84 0b       	sbc	r24, r20
    2334:	ba f0       	brmi	.+46     	; 0x2364 <__addsf3x+0x9c>
    2336:	91 50       	subi	r25, 0x01	; 1
    2338:	a1 f0       	breq	.+40     	; 0x2362 <__addsf3x+0x9a>
    233a:	ff 0f       	add	r31, r31
    233c:	bb 1f       	adc	r27, r27
    233e:	66 1f       	adc	r22, r22
    2340:	77 1f       	adc	r23, r23
    2342:	88 1f       	adc	r24, r24
    2344:	c2 f7       	brpl	.-16     	; 0x2336 <__addsf3x+0x6e>
    2346:	0e c0       	rjmp	.+28     	; 0x2364 <__addsf3x+0x9c>
    2348:	ba 0f       	add	r27, r26
    234a:	62 1f       	adc	r22, r18
    234c:	73 1f       	adc	r23, r19
    234e:	84 1f       	adc	r24, r20
    2350:	48 f4       	brcc	.+18     	; 0x2364 <__addsf3x+0x9c>
    2352:	87 95       	ror	r24
    2354:	77 95       	ror	r23
    2356:	67 95       	ror	r22
    2358:	b7 95       	ror	r27
    235a:	f7 95       	ror	r31
    235c:	9e 3f       	cpi	r25, 0xFE	; 254
    235e:	08 f0       	brcs	.+2      	; 0x2362 <__addsf3x+0x9a>
    2360:	b0 cf       	rjmp	.-160    	; 0x22c2 <__addsf3+0x28>
    2362:	93 95       	inc	r25
    2364:	88 0f       	add	r24, r24
    2366:	08 f0       	brcs	.+2      	; 0x236a <__addsf3x+0xa2>
    2368:	99 27       	eor	r25, r25
    236a:	ee 0f       	add	r30, r30
    236c:	97 95       	ror	r25
    236e:	87 95       	ror	r24
    2370:	08 95       	ret

00002372 <__cmpsf2>:
    2372:	0e 94 6d 12 	call	0x24da	; 0x24da <__fp_cmp>
    2376:	08 f4       	brcc	.+2      	; 0x237a <__cmpsf2+0x8>
    2378:	81 e0       	ldi	r24, 0x01	; 1
    237a:	08 95       	ret

0000237c <__fixsfdi>:
    237c:	be e3       	ldi	r27, 0x3E	; 62
    237e:	04 d0       	rcall	.+8      	; 0x2388 <__fixunssfdi+0x2>
    2380:	08 f4       	brcc	.+2      	; 0x2384 <__fixsfdi+0x8>
    2382:	90 e8       	ldi	r25, 0x80	; 128
    2384:	08 95       	ret

00002386 <__fixunssfdi>:
    2386:	bf e3       	ldi	r27, 0x3F	; 63
    2388:	22 27       	eor	r18, r18
    238a:	33 27       	eor	r19, r19
    238c:	a9 01       	movw	r20, r18
    238e:	0e 94 d1 12 	call	0x25a2	; 0x25a2 <__fp_splitA>
    2392:	60 f1       	brcs	.+88     	; 0x23ec <__fixunssfdi+0x66>
    2394:	9f 57       	subi	r25, 0x7F	; 127
    2396:	48 f1       	brcs	.+82     	; 0x23ea <__fixunssfdi+0x64>
    2398:	b9 17       	cp	r27, r25
    239a:	40 f1       	brcs	.+80     	; 0x23ec <__fixunssfdi+0x66>
    239c:	bf e3       	ldi	r27, 0x3F	; 63
    239e:	b9 1b       	sub	r27, r25
    23a0:	99 27       	eor	r25, r25
    23a2:	b8 50       	subi	r27, 0x08	; 8
    23a4:	3a f4       	brpl	.+14     	; 0x23b4 <__fixunssfdi+0x2e>
    23a6:	66 0f       	add	r22, r22
    23a8:	77 1f       	adc	r23, r23
    23aa:	88 1f       	adc	r24, r24
    23ac:	99 1f       	adc	r25, r25
    23ae:	b3 95       	inc	r27
    23b0:	d2 f3       	brmi	.-12     	; 0x23a6 <__fixunssfdi+0x20>
    23b2:	16 c0       	rjmp	.+44     	; 0x23e0 <__fixunssfdi+0x5a>
    23b4:	b8 50       	subi	r27, 0x08	; 8
    23b6:	4a f0       	brmi	.+18     	; 0x23ca <__fixunssfdi+0x44>
    23b8:	23 2f       	mov	r18, r19
    23ba:	34 2f       	mov	r19, r20
    23bc:	45 2f       	mov	r20, r21
    23be:	56 2f       	mov	r21, r22
    23c0:	67 2f       	mov	r22, r23
    23c2:	78 2f       	mov	r23, r24
    23c4:	88 27       	eor	r24, r24
    23c6:	b8 50       	subi	r27, 0x08	; 8
    23c8:	ba f7       	brpl	.-18     	; 0x23b8 <__fixunssfdi+0x32>
    23ca:	b8 5f       	subi	r27, 0xF8	; 248
    23cc:	49 f0       	breq	.+18     	; 0x23e0 <__fixunssfdi+0x5a>
    23ce:	86 95       	lsr	r24
    23d0:	77 95       	ror	r23
    23d2:	67 95       	ror	r22
    23d4:	57 95       	ror	r21
    23d6:	47 95       	ror	r20
    23d8:	37 95       	ror	r19
    23da:	27 95       	ror	r18
    23dc:	ba 95       	dec	r27
    23de:	b9 f7       	brne	.-18     	; 0x23ce <__fixunssfdi+0x48>
    23e0:	16 f4       	brtc	.+4      	; 0x23e6 <__fixunssfdi+0x60>
    23e2:	0e 94 9a 12 	call	0x2534	; 0x2534 <__fp_negdi>
    23e6:	88 94       	clc
    23e8:	08 95       	ret
    23ea:	88 94       	clc
    23ec:	60 e0       	ldi	r22, 0x00	; 0
    23ee:	70 e0       	ldi	r23, 0x00	; 0
    23f0:	cb 01       	movw	r24, r22
    23f2:	08 95       	ret

000023f4 <__fixsfsi>:
    23f4:	0e 94 01 12 	call	0x2402	; 0x2402 <__fixunssfsi>
    23f8:	68 94       	set
    23fa:	b1 11       	cpse	r27, r1
    23fc:	0c 94 ec 12 	jmp	0x25d8	; 0x25d8 <__fp_szero>
    2400:	08 95       	ret

00002402 <__fixunssfsi>:
    2402:	0e 94 d1 12 	call	0x25a2	; 0x25a2 <__fp_splitA>
    2406:	88 f0       	brcs	.+34     	; 0x242a <__fixunssfsi+0x28>
    2408:	9f 57       	subi	r25, 0x7F	; 127
    240a:	98 f0       	brcs	.+38     	; 0x2432 <__fixunssfsi+0x30>
    240c:	b9 2f       	mov	r27, r25
    240e:	99 27       	eor	r25, r25
    2410:	b7 51       	subi	r27, 0x17	; 23
    2412:	b0 f0       	brcs	.+44     	; 0x2440 <__fixunssfsi+0x3e>
    2414:	e1 f0       	breq	.+56     	; 0x244e <__fixunssfsi+0x4c>
    2416:	66 0f       	add	r22, r22
    2418:	77 1f       	adc	r23, r23
    241a:	88 1f       	adc	r24, r24
    241c:	99 1f       	adc	r25, r25
    241e:	1a f0       	brmi	.+6      	; 0x2426 <__fixunssfsi+0x24>
    2420:	ba 95       	dec	r27
    2422:	c9 f7       	brne	.-14     	; 0x2416 <__fixunssfsi+0x14>
    2424:	14 c0       	rjmp	.+40     	; 0x244e <__fixunssfsi+0x4c>
    2426:	b1 30       	cpi	r27, 0x01	; 1
    2428:	91 f0       	breq	.+36     	; 0x244e <__fixunssfsi+0x4c>
    242a:	0e 94 eb 12 	call	0x25d6	; 0x25d6 <__fp_zero>
    242e:	b1 e0       	ldi	r27, 0x01	; 1
    2430:	08 95       	ret
    2432:	0c 94 eb 12 	jmp	0x25d6	; 0x25d6 <__fp_zero>
    2436:	67 2f       	mov	r22, r23
    2438:	78 2f       	mov	r23, r24
    243a:	88 27       	eor	r24, r24
    243c:	b8 5f       	subi	r27, 0xF8	; 248
    243e:	39 f0       	breq	.+14     	; 0x244e <__fixunssfsi+0x4c>
    2440:	b9 3f       	cpi	r27, 0xF9	; 249
    2442:	cc f3       	brlt	.-14     	; 0x2436 <__fixunssfsi+0x34>
    2444:	86 95       	lsr	r24
    2446:	77 95       	ror	r23
    2448:	67 95       	ror	r22
    244a:	b3 95       	inc	r27
    244c:	d9 f7       	brne	.-10     	; 0x2444 <__fixunssfsi+0x42>
    244e:	3e f4       	brtc	.+14     	; 0x245e <__fixunssfsi+0x5c>
    2450:	90 95       	com	r25
    2452:	80 95       	com	r24
    2454:	70 95       	com	r23
    2456:	61 95       	neg	r22
    2458:	7f 4f       	sbci	r23, 0xFF	; 255
    245a:	8f 4f       	sbci	r24, 0xFF	; 255
    245c:	9f 4f       	sbci	r25, 0xFF	; 255
    245e:	08 95       	ret

00002460 <__floatunsisf>:
    2460:	e8 94       	clt
    2462:	09 c0       	rjmp	.+18     	; 0x2476 <__floatsisf+0x12>

00002464 <__floatsisf>:
    2464:	97 fb       	bst	r25, 7
    2466:	3e f4       	brtc	.+14     	; 0x2476 <__floatsisf+0x12>
    2468:	90 95       	com	r25
    246a:	80 95       	com	r24
    246c:	70 95       	com	r23
    246e:	61 95       	neg	r22
    2470:	7f 4f       	sbci	r23, 0xFF	; 255
    2472:	8f 4f       	sbci	r24, 0xFF	; 255
    2474:	9f 4f       	sbci	r25, 0xFF	; 255
    2476:	99 23       	and	r25, r25
    2478:	a9 f0       	breq	.+42     	; 0x24a4 <__floatsisf+0x40>
    247a:	f9 2f       	mov	r31, r25
    247c:	96 e9       	ldi	r25, 0x96	; 150
    247e:	bb 27       	eor	r27, r27
    2480:	93 95       	inc	r25
    2482:	f6 95       	lsr	r31
    2484:	87 95       	ror	r24
    2486:	77 95       	ror	r23
    2488:	67 95       	ror	r22
    248a:	b7 95       	ror	r27
    248c:	f1 11       	cpse	r31, r1
    248e:	f8 cf       	rjmp	.-16     	; 0x2480 <__floatsisf+0x1c>
    2490:	fa f4       	brpl	.+62     	; 0x24d0 <__floatsisf+0x6c>
    2492:	bb 0f       	add	r27, r27
    2494:	11 f4       	brne	.+4      	; 0x249a <__floatsisf+0x36>
    2496:	60 ff       	sbrs	r22, 0
    2498:	1b c0       	rjmp	.+54     	; 0x24d0 <__floatsisf+0x6c>
    249a:	6f 5f       	subi	r22, 0xFF	; 255
    249c:	7f 4f       	sbci	r23, 0xFF	; 255
    249e:	8f 4f       	sbci	r24, 0xFF	; 255
    24a0:	9f 4f       	sbci	r25, 0xFF	; 255
    24a2:	16 c0       	rjmp	.+44     	; 0x24d0 <__floatsisf+0x6c>
    24a4:	88 23       	and	r24, r24
    24a6:	11 f0       	breq	.+4      	; 0x24ac <__floatsisf+0x48>
    24a8:	96 e9       	ldi	r25, 0x96	; 150
    24aa:	11 c0       	rjmp	.+34     	; 0x24ce <__floatsisf+0x6a>
    24ac:	77 23       	and	r23, r23
    24ae:	21 f0       	breq	.+8      	; 0x24b8 <__floatsisf+0x54>
    24b0:	9e e8       	ldi	r25, 0x8E	; 142
    24b2:	87 2f       	mov	r24, r23
    24b4:	76 2f       	mov	r23, r22
    24b6:	05 c0       	rjmp	.+10     	; 0x24c2 <__floatsisf+0x5e>
    24b8:	66 23       	and	r22, r22
    24ba:	71 f0       	breq	.+28     	; 0x24d8 <__floatsisf+0x74>
    24bc:	96 e8       	ldi	r25, 0x86	; 134
    24be:	86 2f       	mov	r24, r22
    24c0:	70 e0       	ldi	r23, 0x00	; 0
    24c2:	60 e0       	ldi	r22, 0x00	; 0
    24c4:	2a f0       	brmi	.+10     	; 0x24d0 <__floatsisf+0x6c>
    24c6:	9a 95       	dec	r25
    24c8:	66 0f       	add	r22, r22
    24ca:	77 1f       	adc	r23, r23
    24cc:	88 1f       	adc	r24, r24
    24ce:	da f7       	brpl	.-10     	; 0x24c6 <__floatsisf+0x62>
    24d0:	88 0f       	add	r24, r24
    24d2:	96 95       	lsr	r25
    24d4:	87 95       	ror	r24
    24d6:	97 f9       	bld	r25, 7
    24d8:	08 95       	ret

000024da <__fp_cmp>:
    24da:	99 0f       	add	r25, r25
    24dc:	00 08       	sbc	r0, r0
    24de:	55 0f       	add	r21, r21
    24e0:	aa 0b       	sbc	r26, r26
    24e2:	e0 e8       	ldi	r30, 0x80	; 128
    24e4:	fe ef       	ldi	r31, 0xFE	; 254
    24e6:	16 16       	cp	r1, r22
    24e8:	17 06       	cpc	r1, r23
    24ea:	e8 07       	cpc	r30, r24
    24ec:	f9 07       	cpc	r31, r25
    24ee:	c0 f0       	brcs	.+48     	; 0x2520 <__fp_cmp+0x46>
    24f0:	12 16       	cp	r1, r18
    24f2:	13 06       	cpc	r1, r19
    24f4:	e4 07       	cpc	r30, r20
    24f6:	f5 07       	cpc	r31, r21
    24f8:	98 f0       	brcs	.+38     	; 0x2520 <__fp_cmp+0x46>
    24fa:	62 1b       	sub	r22, r18
    24fc:	73 0b       	sbc	r23, r19
    24fe:	84 0b       	sbc	r24, r20
    2500:	95 0b       	sbc	r25, r21
    2502:	39 f4       	brne	.+14     	; 0x2512 <__fp_cmp+0x38>
    2504:	0a 26       	eor	r0, r26
    2506:	61 f0       	breq	.+24     	; 0x2520 <__fp_cmp+0x46>
    2508:	23 2b       	or	r18, r19
    250a:	24 2b       	or	r18, r20
    250c:	25 2b       	or	r18, r21
    250e:	21 f4       	brne	.+8      	; 0x2518 <__fp_cmp+0x3e>
    2510:	08 95       	ret
    2512:	0a 26       	eor	r0, r26
    2514:	09 f4       	brne	.+2      	; 0x2518 <__fp_cmp+0x3e>
    2516:	a1 40       	sbci	r26, 0x01	; 1
    2518:	a6 95       	lsr	r26
    251a:	8f ef       	ldi	r24, 0xFF	; 255
    251c:	81 1d       	adc	r24, r1
    251e:	81 1d       	adc	r24, r1
    2520:	08 95       	ret

00002522 <__fp_inf>:
    2522:	97 f9       	bld	r25, 7
    2524:	9f 67       	ori	r25, 0x7F	; 127
    2526:	80 e8       	ldi	r24, 0x80	; 128
    2528:	70 e0       	ldi	r23, 0x00	; 0
    252a:	60 e0       	ldi	r22, 0x00	; 0
    252c:	08 95       	ret

0000252e <__fp_nan>:
    252e:	9f ef       	ldi	r25, 0xFF	; 255
    2530:	80 ec       	ldi	r24, 0xC0	; 192
    2532:	08 95       	ret

00002534 <__fp_negdi>:
    2534:	90 95       	com	r25
    2536:	80 95       	com	r24
    2538:	70 95       	com	r23
    253a:	60 95       	com	r22
    253c:	50 95       	com	r21
    253e:	40 95       	com	r20
    2540:	30 95       	com	r19
    2542:	21 95       	neg	r18
    2544:	3f 4f       	sbci	r19, 0xFF	; 255
    2546:	4f 4f       	sbci	r20, 0xFF	; 255
    2548:	5f 4f       	sbci	r21, 0xFF	; 255
    254a:	6f 4f       	sbci	r22, 0xFF	; 255
    254c:	7f 4f       	sbci	r23, 0xFF	; 255
    254e:	8f 4f       	sbci	r24, 0xFF	; 255
    2550:	9f 4f       	sbci	r25, 0xFF	; 255
    2552:	08 95       	ret

00002554 <__fp_pscA>:
    2554:	00 24       	eor	r0, r0
    2556:	0a 94       	dec	r0
    2558:	16 16       	cp	r1, r22
    255a:	17 06       	cpc	r1, r23
    255c:	18 06       	cpc	r1, r24
    255e:	09 06       	cpc	r0, r25
    2560:	08 95       	ret

00002562 <__fp_pscB>:
    2562:	00 24       	eor	r0, r0
    2564:	0a 94       	dec	r0
    2566:	12 16       	cp	r1, r18
    2568:	13 06       	cpc	r1, r19
    256a:	14 06       	cpc	r1, r20
    256c:	05 06       	cpc	r0, r21
    256e:	08 95       	ret

00002570 <__fp_round>:
    2570:	09 2e       	mov	r0, r25
    2572:	03 94       	inc	r0
    2574:	00 0c       	add	r0, r0
    2576:	11 f4       	brne	.+4      	; 0x257c <__fp_round+0xc>
    2578:	88 23       	and	r24, r24
    257a:	52 f0       	brmi	.+20     	; 0x2590 <__fp_round+0x20>
    257c:	bb 0f       	add	r27, r27
    257e:	40 f4       	brcc	.+16     	; 0x2590 <__fp_round+0x20>
    2580:	bf 2b       	or	r27, r31
    2582:	11 f4       	brne	.+4      	; 0x2588 <__fp_round+0x18>
    2584:	60 ff       	sbrs	r22, 0
    2586:	04 c0       	rjmp	.+8      	; 0x2590 <__fp_round+0x20>
    2588:	6f 5f       	subi	r22, 0xFF	; 255
    258a:	7f 4f       	sbci	r23, 0xFF	; 255
    258c:	8f 4f       	sbci	r24, 0xFF	; 255
    258e:	9f 4f       	sbci	r25, 0xFF	; 255
    2590:	08 95       	ret

00002592 <__fp_split3>:
    2592:	57 fd       	sbrc	r21, 7
    2594:	90 58       	subi	r25, 0x80	; 128
    2596:	44 0f       	add	r20, r20
    2598:	55 1f       	adc	r21, r21
    259a:	59 f0       	breq	.+22     	; 0x25b2 <__fp_splitA+0x10>
    259c:	5f 3f       	cpi	r21, 0xFF	; 255
    259e:	71 f0       	breq	.+28     	; 0x25bc <__fp_splitA+0x1a>
    25a0:	47 95       	ror	r20

000025a2 <__fp_splitA>:
    25a2:	88 0f       	add	r24, r24
    25a4:	97 fb       	bst	r25, 7
    25a6:	99 1f       	adc	r25, r25
    25a8:	61 f0       	breq	.+24     	; 0x25c2 <__fp_splitA+0x20>
    25aa:	9f 3f       	cpi	r25, 0xFF	; 255
    25ac:	79 f0       	breq	.+30     	; 0x25cc <__fp_splitA+0x2a>
    25ae:	87 95       	ror	r24
    25b0:	08 95       	ret
    25b2:	12 16       	cp	r1, r18
    25b4:	13 06       	cpc	r1, r19
    25b6:	14 06       	cpc	r1, r20
    25b8:	55 1f       	adc	r21, r21
    25ba:	f2 cf       	rjmp	.-28     	; 0x25a0 <__fp_split3+0xe>
    25bc:	46 95       	lsr	r20
    25be:	f1 df       	rcall	.-30     	; 0x25a2 <__fp_splitA>
    25c0:	08 c0       	rjmp	.+16     	; 0x25d2 <__fp_splitA+0x30>
    25c2:	16 16       	cp	r1, r22
    25c4:	17 06       	cpc	r1, r23
    25c6:	18 06       	cpc	r1, r24
    25c8:	99 1f       	adc	r25, r25
    25ca:	f1 cf       	rjmp	.-30     	; 0x25ae <__fp_splitA+0xc>
    25cc:	86 95       	lsr	r24
    25ce:	71 05       	cpc	r23, r1
    25d0:	61 05       	cpc	r22, r1
    25d2:	08 94       	sec
    25d4:	08 95       	ret

000025d6 <__fp_zero>:
    25d6:	e8 94       	clt

000025d8 <__fp_szero>:
    25d8:	bb 27       	eor	r27, r27
    25da:	66 27       	eor	r22, r22
    25dc:	77 27       	eor	r23, r23
    25de:	cb 01       	movw	r24, r22
    25e0:	97 f9       	bld	r25, 7
    25e2:	08 95       	ret

000025e4 <__mulsf3>:
    25e4:	0e 94 05 13 	call	0x260a	; 0x260a <__mulsf3x>
    25e8:	0c 94 b8 12 	jmp	0x2570	; 0x2570 <__fp_round>
    25ec:	0e 94 aa 12 	call	0x2554	; 0x2554 <__fp_pscA>
    25f0:	38 f0       	brcs	.+14     	; 0x2600 <__mulsf3+0x1c>
    25f2:	0e 94 b1 12 	call	0x2562	; 0x2562 <__fp_pscB>
    25f6:	20 f0       	brcs	.+8      	; 0x2600 <__mulsf3+0x1c>
    25f8:	95 23       	and	r25, r21
    25fa:	11 f0       	breq	.+4      	; 0x2600 <__mulsf3+0x1c>
    25fc:	0c 94 91 12 	jmp	0x2522	; 0x2522 <__fp_inf>
    2600:	0c 94 97 12 	jmp	0x252e	; 0x252e <__fp_nan>
    2604:	11 24       	eor	r1, r1
    2606:	0c 94 ec 12 	jmp	0x25d8	; 0x25d8 <__fp_szero>

0000260a <__mulsf3x>:
    260a:	0e 94 c9 12 	call	0x2592	; 0x2592 <__fp_split3>
    260e:	70 f3       	brcs	.-36     	; 0x25ec <__mulsf3+0x8>

00002610 <__mulsf3_pse>:
    2610:	95 9f       	mul	r25, r21
    2612:	c1 f3       	breq	.-16     	; 0x2604 <__mulsf3+0x20>
    2614:	95 0f       	add	r25, r21
    2616:	50 e0       	ldi	r21, 0x00	; 0
    2618:	55 1f       	adc	r21, r21
    261a:	62 9f       	mul	r22, r18
    261c:	f0 01       	movw	r30, r0
    261e:	72 9f       	mul	r23, r18
    2620:	bb 27       	eor	r27, r27
    2622:	f0 0d       	add	r31, r0
    2624:	b1 1d       	adc	r27, r1
    2626:	63 9f       	mul	r22, r19
    2628:	aa 27       	eor	r26, r26
    262a:	f0 0d       	add	r31, r0
    262c:	b1 1d       	adc	r27, r1
    262e:	aa 1f       	adc	r26, r26
    2630:	64 9f       	mul	r22, r20
    2632:	66 27       	eor	r22, r22
    2634:	b0 0d       	add	r27, r0
    2636:	a1 1d       	adc	r26, r1
    2638:	66 1f       	adc	r22, r22
    263a:	82 9f       	mul	r24, r18
    263c:	22 27       	eor	r18, r18
    263e:	b0 0d       	add	r27, r0
    2640:	a1 1d       	adc	r26, r1
    2642:	62 1f       	adc	r22, r18
    2644:	73 9f       	mul	r23, r19
    2646:	b0 0d       	add	r27, r0
    2648:	a1 1d       	adc	r26, r1
    264a:	62 1f       	adc	r22, r18
    264c:	83 9f       	mul	r24, r19
    264e:	a0 0d       	add	r26, r0
    2650:	61 1d       	adc	r22, r1
    2652:	22 1f       	adc	r18, r18
    2654:	74 9f       	mul	r23, r20
    2656:	33 27       	eor	r19, r19
    2658:	a0 0d       	add	r26, r0
    265a:	61 1d       	adc	r22, r1
    265c:	23 1f       	adc	r18, r19
    265e:	84 9f       	mul	r24, r20
    2660:	60 0d       	add	r22, r0
    2662:	21 1d       	adc	r18, r1
    2664:	82 2f       	mov	r24, r18
    2666:	76 2f       	mov	r23, r22
    2668:	6a 2f       	mov	r22, r26
    266a:	11 24       	eor	r1, r1
    266c:	9f 57       	subi	r25, 0x7F	; 127
    266e:	50 40       	sbci	r21, 0x00	; 0
    2670:	9a f0       	brmi	.+38     	; 0x2698 <__mulsf3_pse+0x88>
    2672:	f1 f0       	breq	.+60     	; 0x26b0 <__mulsf3_pse+0xa0>
    2674:	88 23       	and	r24, r24
    2676:	4a f0       	brmi	.+18     	; 0x268a <__mulsf3_pse+0x7a>
    2678:	ee 0f       	add	r30, r30
    267a:	ff 1f       	adc	r31, r31
    267c:	bb 1f       	adc	r27, r27
    267e:	66 1f       	adc	r22, r22
    2680:	77 1f       	adc	r23, r23
    2682:	88 1f       	adc	r24, r24
    2684:	91 50       	subi	r25, 0x01	; 1
    2686:	50 40       	sbci	r21, 0x00	; 0
    2688:	a9 f7       	brne	.-22     	; 0x2674 <__mulsf3_pse+0x64>
    268a:	9e 3f       	cpi	r25, 0xFE	; 254
    268c:	51 05       	cpc	r21, r1
    268e:	80 f0       	brcs	.+32     	; 0x26b0 <__mulsf3_pse+0xa0>
    2690:	0c 94 91 12 	jmp	0x2522	; 0x2522 <__fp_inf>
    2694:	0c 94 ec 12 	jmp	0x25d8	; 0x25d8 <__fp_szero>
    2698:	5f 3f       	cpi	r21, 0xFF	; 255
    269a:	e4 f3       	brlt	.-8      	; 0x2694 <__mulsf3_pse+0x84>
    269c:	98 3e       	cpi	r25, 0xE8	; 232
    269e:	d4 f3       	brlt	.-12     	; 0x2694 <__mulsf3_pse+0x84>
    26a0:	86 95       	lsr	r24
    26a2:	77 95       	ror	r23
    26a4:	67 95       	ror	r22
    26a6:	b7 95       	ror	r27
    26a8:	f7 95       	ror	r31
    26aa:	e7 95       	ror	r30
    26ac:	9f 5f       	subi	r25, 0xFF	; 255
    26ae:	c1 f7       	brne	.-16     	; 0x26a0 <__mulsf3_pse+0x90>
    26b0:	fe 2b       	or	r31, r30
    26b2:	88 0f       	add	r24, r24
    26b4:	91 1d       	adc	r25, r1
    26b6:	96 95       	lsr	r25
    26b8:	87 95       	ror	r24
    26ba:	97 f9       	bld	r25, 7
    26bc:	08 95       	ret

000026be <_exit>:
    26be:	f8 94       	cli

000026c0 <__stop_program>:
    26c0:	ff cf       	rjmp	.-2      	; 0x26c0 <__stop_program>
